
Telemetrons_CloudRobotics2013.elf:     file format elf32-littlemips


Disassembly of section .text:

20000000 <_text>:
   .extern _etext
   .extern _ebss
   .extern Handle_Interrupts

   .set noreorder
		nop
20000000:	00000000 	nop
        j _startup            # Reset vector
20000004:	08000005 	j	20000014 <_startup>
        nop
20000008:	00000000 	nop

        j Handler            # Interrupt vector
2000000c:	0800071f 	j	20001c7c <Handler>
        nop
20000010:	00000000 	nop

20000014 <_startup>:

   .func   _startup
_startup:                     # Start of code section
/* Set global pointer register */
        la $28, _gp
20000014:	3c1c4000 	lui	gp,0x4000
20000018:	279c01a0 	addiu	gp,gp,416

/* Set the stack pointer */
        la $t0, USR_Stk_Base_Val
2000001c:	3c084000 	lui	t0,0x4000
20000020:	35083e00 	ori	t0,t0,0x3e00
        move $sp, $t0
20000024:	0100e821 	move	sp,t0

        mtc0 $sp, $25         # Save CP0 Status Reg
20000028:	409dc800 	mtc0	sp,$25

/* Fill the stack */
        la $3, Top_Stack - 4
2000002c:	3c034000 	lui	v1,0x4000
20000030:	34633ffc 	ori	v1,v1,0x3ffc
        la $4, Top_Stack -IRQ_Stk -USR_Stk
20000034:	3c044000 	lui	a0,0x4000
20000038:	34843600 	ori	a0,a0,0x3600
        la $5, 0xDEC0ADDE
2000003c:	3c05dec0 	lui	a1,0xdec0
20000040:	34a5adde 	ori	a1,a1,0xadde

20000044 <Stk_fill>:
Stk_fill:
		sw $5, 0($4)
20000044:	ac850000 	sw	a1,0(a0)
		slt $2, $4, $3
20000048:	0083102a 	slt	v0,a0,v1
		bnez $2, Stk_fill
2000004c:	1440fffd 	bnez	v0,20000044 <Stk_fill>
		addiu $4, $4, 4
20000050:	24840004 	addiu	a0,a0,4
/* End of stack-filler */

		/* Special value at the bottom of the interrupt stack */
		la $4, Top_Stack -IRQ_Stk
20000054:	3c044000 	lui	a0,0x4000
20000058:	34843e00 	ori	a0,a0,0x3e00
		la $5, INT_Stk_Val
2000005c:	3c054000 	lui	a1,0x4000
20000060:	24a50134 	addiu	a1,a1,308
		lw $5, 0($5)
20000064:	8ca50000 	lw	a1,0(a1)
		nop
20000068:	00000000 	nop
		sw $5, 0($4)
2000006c:	ac850000 	sw	a1,0(a0)

		/* Special value at the bottom of the user stack */
		la $4, Top_Stack -IRQ_Stk -USR_Stk
20000070:	3c044000 	lui	a0,0x4000
20000074:	34843600 	ori	a0,a0,0x3600
		la $5, USR_Stk_Val
20000078:	3c054000 	lui	a1,0x4000
2000007c:	24a50130 	addiu	a1,a1,304
		lw $5, 0($5)
20000080:	8ca50000 	lw	a1,0(a1)
		nop
20000084:	00000000 	nop
		sw $5, 0($4)
20000088:	ac850000 	sw	a1,0(a0)

        la $4, _etext
2000008c:	3c042000 	lui	a0,0x2000
20000090:	24842edc 	addiu	a0,a0,11996
        la $5, _text
20000094:	3c052000 	lui	a1,0x2000
20000098:	24a50000 	addiu	a1,a1,0
        subu $4, $4, $5
2000009c:	00852023 	subu	a0,a0,a1
        la $5, _edata
200000a0:	3c054000 	lui	a1,0x4000
200000a4:	24a501a0 	addiu	a1,a1,416
        la $6, _data
200000a8:	3c064000 	lui	a2,0x4000
200000ac:	24c60000 	addiu	a2,a2,0

200000b0 <Data_copy>:
Data_copy:
        lw $2, 0($4)
200000b0:	8c820000 	lw	v0,0(a0)
        nop
200000b4:	00000000 	nop
        slt $3, $6, $5
200000b8:	00c5182a 	slt	v1,a2,a1
        sw $2, 0($6)
200000bc:	acc20000 	sw	v0,0(a2)
        addiu $6, $6, 4
200000c0:	24c60004 	addiu	a2,a2,4
        bnez  $3, Data_copy
200000c4:	1460fffa 	bnez	v1,200000b0 <Data_copy>
        addiu $4, $4, 4
200000c8:	24840004 	addiu	a0,a0,4

/* Clear .bss section (Zero init) */
        la $4, _bss   # Clear BSS Segment
200000cc:	3c044000 	lui	a0,0x4000
200000d0:	248401a0 	addiu	a0,a0,416
        la $5, _ebss  # Clear BSS Segment
200000d4:	3c054000 	lui	a1,0x4000
200000d8:	24a509d0 	addiu	a1,a1,2512

200000dc <BSS_clear>:
BSS_clear:
        sw  $0, 0($4)
200000dc:	ac800000 	sw	zero,0(a0)
        slt $3, $4, $5
200000e0:	0085182a 	slt	v1,a0,a1
        bnez  $3, BSS_clear
200000e4:	1460fffd 	bnez	v1,200000dc <BSS_clear>
        addiu $4, $4, 4
200000e8:	24840004 	addiu	a0,a0,4

        la $4, _stext
200000ec:	3c040000 	lui	a0,0x0
200000f0:	24840000 	addiu	a0,a0,0
        la $5, _etext
200000f4:	3c052000 	lui	a1,0x2000
200000f8:	24a52edc 	addiu	a1,a1,11996
        la $6, _text
200000fc:	3c062000 	lui	a2,0x2000
20000100:	24c60000 	addiu	a2,a2,0

20000104 <Code_copy>:
Code_copy:
        lw $2, 0($4)
20000104:	8c820000 	lw	v0,0(a0)
        nop
20000108:	00000000 	nop
        slt $3, $6, $5
2000010c:	00c5182a 	slt	v1,a2,a1
        sw $2, 0($6)
20000110:	acc20000 	sw	v0,0(a2)
        addiu $6, $6, 4
20000114:	24c60004 	addiu	a2,a2,4
        bnez  $3, Code_copy
20000118:	1460fffa 	bnez	v1,20000104 <Code_copy>
        addiu $4, $4, 4
2000011c:	24840004 	addiu	a0,a0,4


/* Enable system interrupts */
        mfc0 $4, $12         # Read CP0 Status Reg
20000120:	40046000 	mfc0	a0,c0_sr
        nop
20000124:	00000000 	nop
        ori $4, $4, 0x700    # Set IE and IRQ = 7
20000128:	34840700 	ori	a0,a0,0x700
        nop
2000012c:	00000000 	nop
        mtc0 $4, $12         # Save CP0 Status Reg
20000130:	40846000 	mtc0	a0,c0_sr
        nop
20000134:	00000000 	nop
        
        la $4, 0xFF00
20000138:	3404ff00 	li	a0,0xff00
        nop
2000013c:	00000000 	nop
        mtc0 $4, $13
20000140:	40846800 	mtc0	a0,c0_cause
        jalr $t0
		nop
#endif

/* Finally, start running the C code - branch to main() */
		la $t0, main
20000144:	3c082000 	lui	t0,0x2000
20000148:	25080160 	addiu	t0,t0,352
        jalr $t0        # Call main()
2000014c:	0100f809 	jalr	t0
        nop
20000150:	00000000 	nop

20000154 <_exit>:

	.global _exit
_exit:                  # Halt if main returns
        b   _exit
20000154:	1000ffff                                ....

20000158 <DEBUG_Assert_Failed>:
 *
 * \param[in]	file	The name of the file where the assertion failed.
 * \param[in]	line	The line number where the assertion failed.
 */
void DEBUG_Assert_Failed(TTE_UNUSED char* file, TTE_UNUSED int line)
{
20000158:	08000056 	j	20000158 <DEBUG_Assert_Failed>
2000015c:	00000000 	nop

20000160 <main>:
 *
 * This function should never exit, as embedded systems do not have an
 * operating system to return to.
 */
int main(void)
{
20000160:	27bdffe8 	addiu	sp,sp,-24
20000164:	afbf0014 	sw	ra,20(sp)
 * @param
 */
TTE_ALWAYS_INLINE
static inline void Target_Mapping_Init(void)
{
	Device_Add(NULL);
20000168:	0c000b96 	jal	20002e58 <Device_Add>
2000016c:	00002021 	move	a0,zero
	return 0;
#endif

	Target_Mapping_Init();

	Scheduler_Init(Config_Tick_Period);
20000170:	0c000863 	jal	2000218c <Scheduler_Init>
20000174:	240403e8 	li	a0,1000
	Tasks_Init();
20000178:	0c000066 	jal	20000198 <Tasks_Init>
2000017c:	00000000 	nop

	Scheduler_Start();
20000180:	0c000859 	jal	20002164 <Scheduler_Start>
20000184:	00000000 	nop

	while (TRUE)
	{
		Scheduler_Dispatch();
20000188:	0c0007fb 	jal	20001fec <Scheduler_Dispatch>
2000018c:	00000000 	nop
20000190:	08000062 	j	20000188 <main+0x28>
20000194:	00000000 	nop

20000198 <Tasks_Init>:

/**
 * Initialise all hardware for all tasks.
 */
void Tasks_Init(void)
{
20000198:	27bdffe8 	addiu	sp,sp,-24
2000019c:	afbf0014 	sw	ra,20(sp)
	Flashing_LED_Init();
200001a0:	0c000666 	jal	20001998 <Flashing_LED_Init>
200001a4:	00000000 	nop
	System_Control_Init();
200001a8:	0c000122 	jal	20000488 <System_Control_Init>
200001ac:	00000000 	nop
	Read_Enc_Init();
200001b0:	0c0001f3 	jal	200007cc <Read_Enc_Init>
200001b4:	00000000 	nop
	Motor_Right_Init();
200001b8:	0c000347 	jal	20000d1c <Motor_Right_Init>
200001bc:	00000000 	nop
	Motor_Left_Init();
200001c0:	0c0003fe 	jal	20000ff8 <Motor_Left_Init>
200001c4:	00000000 	nop
	Course_Corrector_Init();
200001c8:	0c00069f 	jal	20001a7c <Course_Corrector_Init>
200001cc:	00000000 	nop
	CAN_relay_Init();
200001d0:	0c0006b9 	jal	20001ae4 <CAN_relay_Init>
200001d4:	00000000 	nop
	Message_Sender_Init();
200001d8:	0c00063a 	jal	200018e8 <Message_Sender_Init>
200001dc:	00000000 	nop
	object_detection_Init();
}
200001e0:	8fbf0014 	lw	ra,20(sp)
	Motor_Right_Init();
	Motor_Left_Init();
	Course_Corrector_Init();
	CAN_relay_Init();
	Message_Sender_Init();
	object_detection_Init();
200001e4:	0800007b 	j	200001ec <object_detection_Init>
200001e8:	27bd0018 	addiu	sp,sp,24

200001ec <object_detection_Init>:
 * Initialisation for the object_detection package.
 * This will be called from Tasks_Init by default.
 */
void object_detection_Init(void)
{
	objectFollower = Fd;
200001ec:	24020001 	li	v0,1
	nextMove = Fd;
200001f0:	af8200f4 	sw	v0,244(gp)
 * Initialisation for the object_detection package.
 * This will be called from Tasks_Init by default.
 */
void object_detection_Init(void)
{
	objectFollower = Fd;
200001f4:	af8200f8 	sw	v0,248(gp)
	nextMove = Fd;
	avoidance = STRAIGHT;
200001f8:	af8000fc 	sw	zero,252(gp)
	lastAvoidance = STRAIGHT;
}
200001fc:	03e00008 	jr	ra
20000200:	af800100 	sw	zero,256(gp)

20000204 <object_detection_Update>:
 */
void object_detection_Update(void)
{
	static uint16_t stop = 0;

	switch(avoidance)
20000204:	8f8200fc 	lw	v0,252(gp)
20000208:	24040002 	li	a0,2
2000020c:	10440076 	beq	v0,a0,200003e8 <object_detection_Update+0x1e4>
20000210:	2c430003 	sltiu	v1,v0,3
20000214:	10600008 	beqz	v1,20000238 <object_detection_Update+0x34>
20000218:	24030004 	li	v1,4
2000021c:	1040000f 	beqz	v0,2000025c <object_detection_Update+0x58>
20000220:	24050001 	li	a1,1
20000224:	24030001 	li	v1,1
20000228:	14430095 	bne	v0,v1,20000480 <object_detection_Update+0x27c>
2000022c:	3c034000 	lui	v1,0x4000
				stop = 0;
			}
		}
		break;
	case AVOID_L:
		movement_G = Rt;
20000230:	080000f1 	j	200003c4 <object_detection_Update+0x1c0>
20000234:	24050004 	li	a1,4
 */
void object_detection_Update(void)
{
	static uint16_t stop = 0;

	switch(avoidance)
20000238:	10430080 	beq	v0,v1,2000043c <object_detection_Update+0x238>
2000023c:	2c430004 	sltiu	v1,v0,4
20000240:	14600078 	bnez	v1,20000424 <object_detection_Update+0x220>
20000244:	24030003 	li	v1,3
20000248:	24030005 	li	v1,5
2000024c:	1443008c 	bne	v0,v1,20000480 <object_detection_Update+0x27c>
20000250:	00000000 	nop
20000254:	08000117 	j	2000045c <object_detection_Update+0x258>
20000258:	00000000 	nop
	{
	case STRAIGHT:
		movement_G = Fd;

		if((sensorReadings.IRLeft-sensorReadings.IRRight > IR_NOISE)||(sensorReadings.IRRight-sensorReadings.IRLeft > IR_NOISE))
2000025c:	3c024000 	lui	v0,0x4000
20000260:	244603dc 	addiu	a2,v0,988
20000264:	8c4303dc 	lw	v1,988(v0)
20000268:	8cc20004 	lw	v0,4(a2)
2000026c:	00000000 	nop
20000270:	00623823 	subu	a3,v1,v0
20000274:	2ce70003 	sltiu	a3,a3,3
20000278:	10e00005 	beqz	a3,20000290 <object_detection_Update+0x8c>
2000027c:	af8500ec 	sw	a1,236(gp)
20000280:	00433823 	subu	a3,v0,v1
20000284:	2ce70003 	sltiu	a3,a3,3
20000288:	14e0001c 	bnez	a3,200002fc <object_detection_Update+0xf8>
2000028c:	00000000 	nop
		{
			if((sensorReadings.IRLeft < sensorReadings.IRRight) && ((sensorReadings.IRLeft < IR_MIN)||((sensorReadings.USFwd < US_MIN) && (sensorReadings.USFwd > US_NOISE))))
20000290:	0062202b 	sltu	a0,v1,v0
20000294:	1080000b 	beqz	a0,200002c4 <object_detection_Update+0xc0>
20000298:	2c640015 	sltiu	a0,v1,21
2000029c:	14800007 	bnez	a0,200002bc <object_detection_Update+0xb8>
200002a0:	3c044000 	lui	a0,0x4000
200002a4:	8c8403e4 	lw	a0,996(a0)
200002a8:	00000000 	nop
200002ac:	2484fff0 	addiu	a0,a0,-16
200002b0:	2c84000b 	sltiu	a0,a0,11
200002b4:	10800003 	beqz	a0,200002c4 <object_detection_Update+0xc0>
200002b8:	00000000 	nop
			{
				avoidance = AVOID_L;
200002bc:	08000115 	j	20000454 <object_detection_Update+0x250>
200002c0:	24020001 	li	v0,1
			}
			else if((sensorReadings.IRLeft > sensorReadings.IRRight) && ((sensorReadings.IRRight < IR_MIN)||((sensorReadings.USFwd < US_MIN) && (sensorReadings.USFwd > US_NOISE))))
200002c4:	0043182b 	sltu	v1,v0,v1
200002c8:	1060006d 	beqz	v1,20000480 <object_detection_Update+0x27c>
200002cc:	2c420015 	sltiu	v0,v0,21
200002d0:	14400060 	bnez	v0,20000454 <object_detection_Update+0x250>
200002d4:	24020002 	li	v0,2
200002d8:	3c024000 	lui	v0,0x4000
200002dc:	8c4203e4 	lw	v0,996(v0)
200002e0:	00000000 	nop
200002e4:	2442fff0 	addiu	v0,v0,-16
200002e8:	2c42000b 	sltiu	v0,v0,11
200002ec:	10400064 	beqz	v0,20000480 <object_detection_Update+0x27c>
200002f0:	24020002 	li	v0,2
200002f4:	08000115 	j	20000454 <object_detection_Update+0x250>
200002f8:	00000000 	nop
			{
				avoidance = AVOID_R;
			}
		}
		else if(((sensorReadings.USFwd < US_MIN) && (sensorReadings.USFwd > US_NOISE))&&(nextMove == Fd))
200002fc:	8cc60008 	lw	a2,8(a2)
20000300:	00000000 	nop
20000304:	24c6fff0 	addiu	a2,a2,-16
20000308:	2cc6000b 	sltiu	a2,a2,11
2000030c:	10c0000d 	beqz	a2,20000344 <object_detection_Update+0x140>
20000310:	00000000 	nop
20000314:	8f8600f4 	lw	a2,244(gp)
20000318:	00000000 	nop
2000031c:	14c50009 	bne	a2,a1,20000344 <object_detection_Update+0x140>
20000320:	00000000 	nop
		{
			if(lastAvoidance == STRAIGHT)
20000324:	8f820100 	lw	v0,256(gp)
20000328:	00000000 	nop
2000032c:	14400003 	bnez	v0,2000033c <object_detection_Update+0x138>
20000330:	00000000 	nop
			{
				lastAvoidance = AVOID_R;
20000334:	af840100 	sw	a0,256(gp)
			}
			avoidance = lastAvoidance;
20000338:	8f820100 	lw	v0,256(gp)
		break;
	case FOLLOW_R:
		movement_G = Rt;
		if(sensorReadings.IRRight <= IR_MAX)
		{
			avoidance = WAIT;
2000033c:	03e00008 	jr	ra
20000340:	af8200fc 	sw	v0,252(gp)
			{
				lastAvoidance = AVOID_R;
			}
			avoidance = lastAvoidance;
		}
		else if((lastAvoidance == AVOID_L) && (sensorReadings.IRLeft > IR_MAX))
20000344:	8f840100 	lw	a0,256(gp)
20000348:	24050001 	li	a1,1
2000034c:	1485000d 	bne	a0,a1,20000384 <object_detection_Update+0x180>
20000350:	2c630017 	sltiu	v1,v1,23
20000354:	1460004a 	bnez	v1,20000480 <object_detection_Update+0x27c>
20000358:	00000000 	nop
		{
			if(++stop >= 12*HAMMER_TIME)
2000035c:	97820000 	lhu	v0,0(gp)
20000360:	00000000 	nop
20000364:	24420001 	addiu	v0,v0,1
20000368:	3042ffff 	andi	v0,v0,0xffff
2000036c:	2c430258 	sltiu	v1,v0,600
20000370:	a7820000 	sh	v0,0(gp)
20000374:	10600010 	beqz	v1,200003b8 <object_detection_Update+0x1b4>
20000378:	24020003 	li	v0,3
2000037c:	08000120 	j	20000480 <object_detection_Update+0x27c>
20000380:	00000000 	nop
			{
				avoidance = FOLLOW_L;
				stop = 0;
			}
		}
		else if((lastAvoidance == AVOID_R) && (sensorReadings.IRRight > IR_MAX))
20000384:	24030002 	li	v1,2
20000388:	1483003d 	bne	a0,v1,20000480 <object_detection_Update+0x27c>
2000038c:	2c420017 	sltiu	v0,v0,23
20000390:	1440003b 	bnez	v0,20000480 <object_detection_Update+0x27c>
20000394:	00000000 	nop
		{
			if(++stop >= 12*HAMMER_TIME)
20000398:	97820000 	lhu	v0,0(gp)
2000039c:	00000000 	nop
200003a0:	24420001 	addiu	v0,v0,1
200003a4:	3042ffff 	andi	v0,v0,0xffff
200003a8:	2c430258 	sltiu	v1,v0,600
200003ac:	14600034 	bnez	v1,20000480 <object_detection_Update+0x27c>
200003b0:	a7820000 	sh	v0,0(gp)
			{
				avoidance = FOLLOW_R;
200003b4:	24020004 	li	v0,4
200003b8:	af8200fc 	sw	v0,252(gp)
				stop = 0;
200003bc:	03e00008 	jr	ra
200003c0:	a7800000 	sh	zero,0(gp)
		}
		break;
	case AVOID_L:
		movement_G = Rt;
		lastAvoidance = AVOID_L;
		if((sensorReadings.IRLeft >= IR_MIN) && (sensorReadings.USFwd >= US_MIN))
200003c4:	8c6403dc 	lw	a0,988(v1)
200003c8:	00000000 	nop
200003cc:	2c840015 	sltiu	a0,a0,21
				stop = 0;
			}
		}
		break;
	case AVOID_L:
		movement_G = Rt;
200003d0:	af8500ec 	sw	a1,236(gp)
		lastAvoidance = AVOID_L;
200003d4:	af820100 	sw	v0,256(gp)
		if((sensorReadings.IRLeft >= IR_MIN) && (sensorReadings.USFwd >= US_MIN))
200003d8:	1080000b 	beqz	a0,20000408 <object_detection_Update+0x204>
200003dc:	246303dc 	addiu	v1,v1,988
200003e0:	08000120 	j	20000480 <object_detection_Update+0x27c>
200003e4:	00000000 	nop
		}
		break;
	case AVOID_R:
		movement_G = Lf;
		lastAvoidance = AVOID_R;
		if((sensorReadings.IRRight >= IR_MIN) && (sensorReadings.USFwd >= US_MIN))
200003e8:	3c034000 	lui	v1,0x4000
200003ec:	246303dc 	addiu	v1,v1,988
200003f0:	8c640004 	lw	a0,4(v1)
		{
			avoidance = WAIT;
		}
		break;
	case AVOID_R:
		movement_G = Lf;
200003f4:	24050003 	li	a1,3
		lastAvoidance = AVOID_R;
		if((sensorReadings.IRRight >= IR_MIN) && (sensorReadings.USFwd >= US_MIN))
200003f8:	2c840015 	sltiu	a0,a0,21
		{
			avoidance = WAIT;
		}
		break;
	case AVOID_R:
		movement_G = Lf;
200003fc:	af8500ec 	sw	a1,236(gp)
		lastAvoidance = AVOID_R;
		if((sensorReadings.IRRight >= IR_MIN) && (sensorReadings.USFwd >= US_MIN))
20000400:	1480001f 	bnez	a0,20000480 <object_detection_Update+0x27c>
20000404:	af820100 	sw	v0,256(gp)
20000408:	8c620008 	lw	v0,8(v1)
2000040c:	00000000 	nop
20000410:	2c42001b 	sltiu	v0,v0,27
20000414:	1440001a 	bnez	v0,20000480 <object_detection_Update+0x27c>
20000418:	24020005 	li	v0,5
2000041c:	08000115 	j	20000454 <object_detection_Update+0x250>
20000420:	00000000 	nop
			avoidance = WAIT;
		}
		break;
	case FOLLOW_L:
		movement_G = Lf;
		if(sensorReadings.IRLeft <= IR_MAX)
20000424:	3c024000 	lui	v0,0x4000
20000428:	8c4203dc 	lw	v0,988(v0)
2000042c:	00000000 	nop
20000430:	2c420017 	sltiu	v0,v0,23
		{
			avoidance = WAIT;
		}
		break;
	case FOLLOW_L:
		movement_G = Lf;
20000434:	08000113 	j	2000044c <object_detection_Update+0x248>
20000438:	af8300ec 	sw	v1,236(gp)
			avoidance = WAIT;
		}
		break;
	case FOLLOW_R:
		movement_G = Rt;
		if(sensorReadings.IRRight <= IR_MAX)
2000043c:	3c034000 	lui	v1,0x4000
20000440:	8c6303e0 	lw	v1,992(v1)
		{
			avoidance = WAIT;
		}
		break;
	case FOLLOW_R:
		movement_G = Rt;
20000444:	af8200ec 	sw	v0,236(gp)
		if(sensorReadings.IRRight <= IR_MAX)
20000448:	2c620017 	sltiu	v0,v1,23
2000044c:	1040000c 	beqz	v0,20000480 <object_detection_Update+0x27c>
20000450:	24020005 	li	v0,5
		{
			avoidance = WAIT;
20000454:	03e00008 	jr	ra
20000458:	af8200fc 	sw	v0,252(gp)
		}
		break;
	case WAIT:
		movement_G = Stp;
		if(++stop >= HAMMER_TIME)
2000045c:	97820000 	lhu	v0,0(gp)
		{
			avoidance = WAIT;
		}
		break;
	case WAIT:
		movement_G = Stp;
20000460:	af8000ec 	sw	zero,236(gp)
		if(++stop >= HAMMER_TIME)
20000464:	24420001 	addiu	v0,v0,1
20000468:	3042ffff 	andi	v0,v0,0xffff
2000046c:	2c430032 	sltiu	v1,v0,50
20000470:	14600003 	bnez	v1,20000480 <object_detection_Update+0x27c>
20000474:	a7820000 	sh	v0,0(gp)
		{
			avoidance = STRAIGHT;
20000478:	af8000fc 	sw	zero,252(gp)
			stop = 0;
2000047c:	a7800000 	sh	zero,0(gp)
20000480:	03e00008 	jr	ra
20000484:	00000000 	nop

20000488 <System_Control_Init>:
 * This will be called from Tasks_Init by default.
 */
void System_Control_Init(void)
{
	/* Port initialisation */
	GPIO_Set_Direction(Red_Cord_SW, GPIO_INPUT);
20000488:	3c028000 	lui	v0,0x8000
2000048c:	34430500 	ori	v1,v0,0x500
20000490:	8c650004 	lw	a1,4(v1)
20000494:	2404fffe 	li	a0,-2
20000498:	00a42024 	and	a0,a1,a0
2000049c:	ac640004 	sw	a0,4(v1)
200004a0:	8c640004 	lw	a0,4(v1)
	GPIO_Set_Direction(Blue_Cord_SW, GPIO_INPUT);

	GPIO_Set_Direction(Error_Lamp, GPIO_OUTPUT);
200004a4:	34420200 	ori	v0,v0,0x200
 * This will be called from Tasks_Init by default.
 */
void System_Control_Init(void)
{
	/* Port initialisation */
	GPIO_Set_Direction(Red_Cord_SW, GPIO_INPUT);
200004a8:	ac640004 	sw	a0,4(v1)
	GPIO_Set_Direction(Blue_Cord_SW, GPIO_INPUT);
200004ac:	8c650004 	lw	a1,4(v1)
200004b0:	2404fffd 	li	a0,-3
200004b4:	00a42024 	and	a0,a1,a0
200004b8:	ac640004 	sw	a0,4(v1)
200004bc:	8c650004 	lw	a1,4(v1)

	GPIO_Set_Direction(Error_Lamp, GPIO_OUTPUT);
200004c0:	2404feff 	li	a0,-257
 */
void System_Control_Init(void)
{
	/* Port initialisation */
	GPIO_Set_Direction(Red_Cord_SW, GPIO_INPUT);
	GPIO_Set_Direction(Blue_Cord_SW, GPIO_INPUT);
200004c4:	ac650004 	sw	a1,4(v1)

	GPIO_Set_Direction(Error_Lamp, GPIO_OUTPUT);
200004c8:	8c450004 	lw	a1,4(v0)
	GPIO_Write(Error_Lamp, GPIO_LOW);

	GPIO_Set_Direction(Ready_Lamp_Rd, GPIO_OUTPUT);
200004cc:	2406ffbf 	li	a2,-65
{
	/* Port initialisation */
	GPIO_Set_Direction(Red_Cord_SW, GPIO_INPUT);
	GPIO_Set_Direction(Blue_Cord_SW, GPIO_INPUT);

	GPIO_Set_Direction(Error_Lamp, GPIO_OUTPUT);
200004d0:	00a42824 	and	a1,a1,a0
200004d4:	ac450004 	sw	a1,4(v0)
200004d8:	8c470004 	lw	a3,4(v0)
	GPIO_Write(Error_Lamp, GPIO_LOW);

	GPIO_Set_Direction(Ready_Lamp_Rd, GPIO_OUTPUT);
	GPIO_Write(Ready_Lamp_Rd, GPIO_LOW);

	GPIO_Set_Direction(Ready_Lamp_Bl, GPIO_OUTPUT);
200004dc:	2405ff7f 	li	a1,-129
{
	/* Port initialisation */
	GPIO_Set_Direction(Red_Cord_SW, GPIO_INPUT);
	GPIO_Set_Direction(Blue_Cord_SW, GPIO_INPUT);

	GPIO_Set_Direction(Error_Lamp, GPIO_OUTPUT);
200004e0:	34e70100 	ori	a3,a3,0x100
200004e4:	ac470004 	sw	a3,4(v0)
	GPIO_Write(Error_Lamp, GPIO_LOW);
200004e8:	8c470000 	lw	a3,0(v0)
200004ec:	00000000 	nop
200004f0:	00e42024 	and	a0,a3,a0
200004f4:	ac440000 	sw	a0,0(v0)
200004f8:	8c440000 	lw	a0,0(v0)
200004fc:	00000000 	nop
20000500:	ac440000 	sw	a0,0(v0)

	GPIO_Set_Direction(Ready_Lamp_Rd, GPIO_OUTPUT);
20000504:	8c470004 	lw	a3,4(v0)
	GPIO_Write(Ready_Lamp_Rd, GPIO_LOW);

	GPIO_Set_Direction(Ready_Lamp_Bl, GPIO_OUTPUT);
	GPIO_Write(Ready_Lamp_Bl, GPIO_LOW);

	GPIO_Set_Direction(KILL_ALL, GPIO_OUTPUT);
20000508:	3c040080 	lui	a0,0x80
	GPIO_Set_Direction(Blue_Cord_SW, GPIO_INPUT);

	GPIO_Set_Direction(Error_Lamp, GPIO_OUTPUT);
	GPIO_Write(Error_Lamp, GPIO_LOW);

	GPIO_Set_Direction(Ready_Lamp_Rd, GPIO_OUTPUT);
2000050c:	00e63824 	and	a3,a3,a2
20000510:	ac470004 	sw	a3,4(v0)
20000514:	8c470004 	lw	a3,4(v0)
20000518:	00000000 	nop
2000051c:	34e70040 	ori	a3,a3,0x40
20000520:	ac470004 	sw	a3,4(v0)
	GPIO_Write(Ready_Lamp_Rd, GPIO_LOW);
20000524:	8c470000 	lw	a3,0(v0)
20000528:	00000000 	nop
2000052c:	00e63024 	and	a2,a3,a2
20000530:	ac460000 	sw	a2,0(v0)
20000534:	8c460000 	lw	a2,0(v0)
20000538:	00000000 	nop
2000053c:	ac460000 	sw	a2,0(v0)

	GPIO_Set_Direction(Ready_Lamp_Bl, GPIO_OUTPUT);
20000540:	8c460004 	lw	a2,4(v0)
20000544:	00000000 	nop
20000548:	00c53024 	and	a2,a2,a1
2000054c:	ac460004 	sw	a2,4(v0)
20000550:	8c460004 	lw	a2,4(v0)
20000554:	00000000 	nop
20000558:	34c60080 	ori	a2,a2,0x80
2000055c:	ac460004 	sw	a2,4(v0)
	GPIO_Write(Ready_Lamp_Bl, GPIO_LOW);
20000560:	8c460000 	lw	a2,0(v0)
20000564:	00000000 	nop
20000568:	00c52824 	and	a1,a2,a1
2000056c:	ac450000 	sw	a1,0(v0)
20000570:	8c450000 	lw	a1,0(v0)
20000574:	00000000 	nop
20000578:	ac450000 	sw	a1,0(v0)

	GPIO_Set_Direction(KILL_ALL, GPIO_OUTPUT);
2000057c:	8c650004 	lw	a1,4(v1)
20000580:	3c02ff7f 	lui	v0,0xff7f
20000584:	3442ffff 	ori	v0,v0,0xffff
20000588:	00a21024 	and	v0,a1,v0
2000058c:	ac620004 	sw	v0,4(v1)
20000590:	8c620004 	lw	v0,4(v1)
	GPIO_Write(KILL_ALL, GPIO_HIGH);

	/* State and orientation initialisation */
	System_Mode_G = Ready;
20000594:	af800104 	sw	zero,260(gp)
	GPIO_Write(Ready_Lamp_Rd, GPIO_LOW);

	GPIO_Set_Direction(Ready_Lamp_Bl, GPIO_OUTPUT);
	GPIO_Write(Ready_Lamp_Bl, GPIO_LOW);

	GPIO_Set_Direction(KILL_ALL, GPIO_OUTPUT);
20000598:	00441025 	or	v0,v0,a0
2000059c:	ac620004 	sw	v0,4(v1)
	GPIO_Write(KILL_ALL, GPIO_HIGH);
200005a0:	8c620000 	lw	v0,0(v1)

	/* State and orientation initialisation */
	System_Mode_G = Ready;
	debounce = 0;
200005a4:	a3800108 	sb	zero,264(gp)

	GPIO_Set_Direction(Ready_Lamp_Bl, GPIO_OUTPUT);
	GPIO_Write(Ready_Lamp_Bl, GPIO_LOW);

	GPIO_Set_Direction(KILL_ALL, GPIO_OUTPUT);
	GPIO_Write(KILL_ALL, GPIO_HIGH);
200005a8:	ac620000 	sw	v0,0(v1)
200005ac:	8c620000 	lw	v0,0(v1)
200005b0:	00000000 	nop
200005b4:	00442025 	or	a0,v0,a0
200005b8:	ac640000 	sw	a0,0(v1)

	/* State and orientation initialisation */
	System_Mode_G = Ready;
	debounce = 0;
}
200005bc:	03e00008 	jr	ra
200005c0:	00000000 	nop

200005c4 <System_Control_Update>:
/**
 * Main system mode control
 */
void System_Control_Update(void)
{
	switch(System_Mode_G)
200005c4:	8f820104 	lw	v0,260(gp)
200005c8:	24030002 	li	v1,2
200005cc:	10430027 	beq	v0,v1,2000066c <System_Control_Update+0xa8>
200005d0:	2c440003 	sltiu	a0,v0,3
200005d4:	10800007 	beqz	a0,200005f4 <System_Control_Update+0x30>
200005d8:	00000000 	nop
200005dc:	1040000d 	beqz	v0,20000614 <System_Control_Update+0x50>
200005e0:	24040001 	li	a0,1
200005e4:	1444005f 	bne	v0,a0,20000764 <System_Control_Update+0x1a0>
200005e8:	3c028000 	lui	v0,0x8000
		break;

	/* Wait for removal of pull cord to "Go" */
	case Set:
		if(
				(GPIO_Get(Red_Cord_SW) == GPIO_HIGH)
200005ec:	08000188 	j	20000620 <System_Control_Update+0x5c>
200005f0:	34420500 	ori	v0,v0,0x500
/**
 * Main system mode control
 */
void System_Control_Update(void)
{
	switch(System_Mode_G)
200005f4:	24030003 	li	v1,3
200005f8:	10430024 	beq	v0,v1,2000068c <System_Control_Update+0xc8>
200005fc:	00000000 	nop
20000600:	24030004 	li	v1,4
20000604:	14430057 	bne	v0,v1,20000764 <System_Control_Update+0x1a0>
20000608:	3c028000 	lui	v0,0x8000
		GPIO_Write(Ready_Lamp_Bl, GPIO_HIGH);
		break;

	/* Signal Game Over */
	case Game_Over:
		GPIO_Write(KILL_ALL, GPIO_LOW);
2000060c:	080001c1 	j	20000704 <System_Control_Update+0x140>
20000610:	34430500 	ori	v1,v0,0x500
	switch(System_Mode_G)
	{
	/* Wait for pull cord to determine direction */
	case Ready:

		movement_G = Fd;
20000614:	24020001 	li	v0,1
20000618:	08000199 	j	20000664 <System_Control_Update+0xa0>
2000061c:	af8200ec 	sw	v0,236(gp)
		break;

	/* Wait for removal of pull cord to "Go" */
	case Set:
		if(
				(GPIO_Get(Red_Cord_SW) == GPIO_HIGH)
20000620:	8c440000 	lw	a0,0(v0)
20000624:	00000000 	nop
		System_Mode_G = Go;
		break;

	/* Wait for removal of pull cord to "Go" */
	case Set:
		if(
20000628:	30840001 	andi	a0,a0,0x1
2000062c:	10800065 	beqz	a0,200007c4 <System_Control_Update+0x200>
20000630:	00000000 	nop
				(GPIO_Get(Red_Cord_SW) == GPIO_HIGH)
				&&
				(GPIO_Get(Blue_Cord_SW) == GPIO_HIGH)
20000634:	8c420000 	lw	v0,0(v0)
20000638:	00000000 	nop
		System_Mode_G = Go;
		break;

	/* Wait for removal of pull cord to "Go" */
	case Set:
		if(
2000063c:	30420002 	andi	v0,v0,0x2
20000640:	10400060 	beqz	v0,200007c4 <System_Control_Update+0x200>
20000644:	00000000 	nop
				(GPIO_Get(Red_Cord_SW) == GPIO_HIGH)
				&&
				(GPIO_Get(Blue_Cord_SW) == GPIO_HIGH)
				&&
				(++debounce > 100)
20000648:	93820108 	lbu	v0,264(gp)
2000064c:	00000000 	nop
20000650:	24420001 	addiu	v0,v0,1
20000654:	304200ff 	andi	v0,v0,0xff
		System_Mode_G = Go;
		break;

	/* Wait for removal of pull cord to "Go" */
	case Set:
		if(
20000658:	2c440065 	sltiu	a0,v0,101
2000065c:	1480003f 	bnez	a0,2000075c <System_Control_Update+0x198>
20000660:	a3820108 	sb	v0,264(gp)
				(GPIO_Get(Blue_Cord_SW) == GPIO_HIGH)
				&&
				(++debounce > 100)
		)
		{
			System_Mode_G = Go;
20000664:	03e00008 	jr	ra
20000668:	af830104 	sw	v1,260(gp)
		}
		break;

	/* Do nothing */
	case Go:
		GPIO_Write(Ready_Lamp_Rd, GPIO_HIGH);
2000066c:	3c028000 	lui	v0,0x8000
20000670:	34420200 	ori	v0,v0,0x200
20000674:	8c430000 	lw	v1,0(v0)
		debounce = 0;
20000678:	a3800108 	sb	zero,264(gp)
		}
		break;

	/* Do nothing */
	case Go:
		GPIO_Write(Ready_Lamp_Rd, GPIO_HIGH);
2000067c:	ac430000 	sw	v1,0(v0)
20000680:	8c430000 	lw	v1,0(v0)
20000684:	080001d6 	j	20000758 <System_Control_Update+0x194>
20000688:	34630040 	ori	v1,v1,0x40
		debounce = 0;
		break;

	/* Signal E Stop */
	case E_Stop:
		GPIO_Write(KILL_ALL, GPIO_LOW);
2000068c:	3c028000 	lui	v0,0x8000
20000690:	34430500 	ori	v1,v0,0x500
20000694:	8c650000 	lw	a1,0(v1)
20000698:	3c04ff7f 	lui	a0,0xff7f
2000069c:	3484ffff 	ori	a0,a0,0xffff
200006a0:	00a42024 	and	a0,a1,a0
200006a4:	ac640000 	sw	a0,0(v1)
200006a8:	8c640000 	lw	a0,0(v1)
		//GPIO_Set_Direction(KILL_ALL, GPIO_INPUT);
		GPIO_Write(Error_Lamp, GPIO_HIGH);
200006ac:	34420200 	ori	v0,v0,0x200
		debounce = 0;
		break;

	/* Signal E Stop */
	case E_Stop:
		GPIO_Write(KILL_ALL, GPIO_LOW);
200006b0:	ac640000 	sw	a0,0(v1)
		//GPIO_Set_Direction(KILL_ALL, GPIO_INPUT);
		GPIO_Write(Error_Lamp, GPIO_HIGH);
200006b4:	8c430000 	lw	v1,0(v0)
200006b8:	00000000 	nop
200006bc:	ac430000 	sw	v1,0(v0)
200006c0:	8c430000 	lw	v1,0(v0)
200006c4:	00000000 	nop
200006c8:	34630100 	ori	v1,v1,0x100
200006cc:	ac430000 	sw	v1,0(v0)
		GPIO_Write(Ready_Lamp_Rd, GPIO_HIGH);
200006d0:	8c430000 	lw	v1,0(v0)
200006d4:	00000000 	nop
200006d8:	ac430000 	sw	v1,0(v0)
200006dc:	8c430000 	lw	v1,0(v0)
200006e0:	00000000 	nop
200006e4:	34630040 	ori	v1,v1,0x40
200006e8:	ac430000 	sw	v1,0(v0)
		GPIO_Write(Ready_Lamp_Bl, GPIO_HIGH);
200006ec:	8c430000 	lw	v1,0(v0)
200006f0:	00000000 	nop
200006f4:	ac430000 	sw	v1,0(v0)
200006f8:	8c430000 	lw	v1,0(v0)
200006fc:	080001d6 	j	20000758 <System_Control_Update+0x194>
20000700:	34630080 	ori	v1,v1,0x80
		break;

	/* Signal Game Over */
	case Game_Over:
		GPIO_Write(KILL_ALL, GPIO_LOW);
20000704:	8c650000 	lw	a1,0(v1)
20000708:	3c04ff7f 	lui	a0,0xff7f
2000070c:	3484ffff 	ori	a0,a0,0xffff
20000710:	00a42024 	and	a0,a1,a0
20000714:	ac640000 	sw	a0,0(v1)
20000718:	8c640000 	lw	a0,0(v1)
		//GPIO_Set_Direction(KILL_ALL, GPIO_INPUT);
		GPIO_Write(Ready_Lamp_Rd, GPIO_LOW);
2000071c:	34420200 	ori	v0,v0,0x200
		GPIO_Write(Ready_Lamp_Bl, GPIO_HIGH);
		break;

	/* Signal Game Over */
	case Game_Over:
		GPIO_Write(KILL_ALL, GPIO_LOW);
20000720:	ac640000 	sw	a0,0(v1)
		//GPIO_Set_Direction(KILL_ALL, GPIO_INPUT);
		GPIO_Write(Ready_Lamp_Rd, GPIO_LOW);
20000724:	8c440000 	lw	a0,0(v0)
20000728:	2403ffbf 	li	v1,-65
2000072c:	00831824 	and	v1,a0,v1
20000730:	ac430000 	sw	v1,0(v0)
20000734:	8c430000 	lw	v1,0(v0)
		GPIO_Write(Ready_Lamp_Bl, GPIO_LOW);
		System_Mode_G = Ready; // TODO: Remove!
20000738:	af800104 	sw	zero,260(gp)

	/* Signal Game Over */
	case Game_Over:
		GPIO_Write(KILL_ALL, GPIO_LOW);
		//GPIO_Set_Direction(KILL_ALL, GPIO_INPUT);
		GPIO_Write(Ready_Lamp_Rd, GPIO_LOW);
2000073c:	ac430000 	sw	v1,0(v0)
		GPIO_Write(Ready_Lamp_Bl, GPIO_LOW);
20000740:	8c440000 	lw	a0,0(v0)
20000744:	2403ff7f 	li	v1,-129
20000748:	00831824 	and	v1,a0,v1
2000074c:	ac430000 	sw	v1,0(v0)
20000750:	8c430000 	lw	v1,0(v0)
20000754:	00000000 	nop
20000758:	ac430000 	sw	v1,0(v0)
		System_Mode_G = Ready; // TODO: Remove!
		break;
2000075c:	03e00008 	jr	ra
20000760:	00000000 	nop

	default:
		GPIO_Write(KILL_ALL, GPIO_LOW);
20000764:	3c028000 	lui	v0,0x8000
20000768:	34430500 	ori	v1,v0,0x500
2000076c:	8c650000 	lw	a1,0(v1)
20000770:	3c04ff7f 	lui	a0,0xff7f
20000774:	3484ffff 	ori	a0,a0,0xffff
20000778:	00a42024 	and	a0,a1,a0
2000077c:	ac640000 	sw	a0,0(v1)
20000780:	8c640000 	lw	a0,0(v1)
		//GPIO_Set_Direction(KILL_ALL, GPIO_INPUT);
		GPIO_Write(Ready_Lamp_Rd, GPIO_HIGH);
20000784:	34420200 	ori	v0,v0,0x200
		GPIO_Write(Ready_Lamp_Bl, GPIO_LOW);
		System_Mode_G = Ready; // TODO: Remove!
		break;

	default:
		GPIO_Write(KILL_ALL, GPIO_LOW);
20000788:	ac640000 	sw	a0,0(v1)
		//GPIO_Set_Direction(KILL_ALL, GPIO_INPUT);
		GPIO_Write(Ready_Lamp_Rd, GPIO_HIGH);
2000078c:	8c430000 	lw	v1,0(v0)
20000790:	00000000 	nop
20000794:	ac430000 	sw	v1,0(v0)
20000798:	8c430000 	lw	v1,0(v0)
2000079c:	00000000 	nop
200007a0:	34630040 	ori	v1,v1,0x40
200007a4:	ac430000 	sw	v1,0(v0)
		GPIO_Write(Ready_Lamp_Bl, GPIO_HIGH);
200007a8:	8c430000 	lw	v1,0(v0)
200007ac:	00000000 	nop
200007b0:	ac430000 	sw	v1,0(v0)
200007b4:	8c430000 	lw	v1,0(v0)
200007b8:	00000000 	nop
200007bc:	34630080 	ori	v1,v1,0x80
200007c0:	ac430000 	sw	v1,0(v0)
200007c4:	03e00008 	jr	ra
200007c8:	00000000 	nop

200007cc <Read_Enc_Init>:
 * Initialisation for the Read_Enc package.
 * This will be called from Tasks_Init by default.
 */
void Read_Enc_Init(void)
{
	GPIO_Set_Direction(EncL_CH_A, GPIO_INPUT);
200007cc:	3c028000 	lui	v0,0x8000
200007d0:	34420500 	ori	v0,v0,0x500
200007d4:	8c440004 	lw	a0,4(v0)
200007d8:	2403fbff 	li	v1,-1025
200007dc:	00831824 	and	v1,a0,v1
200007e0:	ac430004 	sw	v1,4(v0)
200007e4:	8c430004 	lw	v1,4(v0)
	GPIO_Set_Direction(EncR_CH_B, GPIO_INPUT);

	WheelCounts_Left_G = 0;
	WheelCounts_Right_G = 0;

	EncSignal_A[0] = 0;								/* Signal A from left encoder */
200007e8:	af800114 	sw	zero,276(gp)
 * Initialisation for the Read_Enc package.
 * This will be called from Tasks_Init by default.
 */
void Read_Enc_Init(void)
{
	GPIO_Set_Direction(EncL_CH_A, GPIO_INPUT);
200007ec:	ac430004 	sw	v1,4(v0)
	GPIO_Set_Direction(EncL_CH_B, GPIO_INPUT);
200007f0:	8c440004 	lw	a0,4(v0)
200007f4:	2403f7ff 	li	v1,-2049
200007f8:	00831824 	and	v1,a0,v1
200007fc:	ac430004 	sw	v1,4(v0)
20000800:	8c430004 	lw	v1,4(v0)

	WheelCounts_Left_G = 0;
	WheelCounts_Right_G = 0;

	EncSignal_A[0] = 0;								/* Signal A from left encoder */
	EncSignal_B[0] = 0;								/* Signal B from left encoder */
20000804:	af800124 	sw	zero,292(gp)
 * This will be called from Tasks_Init by default.
 */
void Read_Enc_Init(void)
{
	GPIO_Set_Direction(EncL_CH_A, GPIO_INPUT);
	GPIO_Set_Direction(EncL_CH_B, GPIO_INPUT);
20000808:	ac430004 	sw	v1,4(v0)
	GPIO_Set_Direction(EncR_CH_A, GPIO_INPUT);
2000080c:	8c440004 	lw	a0,4(v0)
20000810:	3c03fff7 	lui	v1,0xfff7
20000814:	3463ffff 	ori	v1,v1,0xffff
20000818:	00831824 	and	v1,a0,v1
2000081c:	ac430004 	sw	v1,4(v0)
20000820:	8c430004 	lw	v1,4(v0)
	WheelCounts_Right_G = 0;

	EncSignal_A[0] = 0;								/* Signal A from left encoder */
	EncSignal_B[0] = 0;								/* Signal B from left encoder */

	EncSignal_A[1] = 0;								/* Signal A from right encoder */
20000824:	af800118 	sw	zero,280(gp)
 */
void Read_Enc_Init(void)
{
	GPIO_Set_Direction(EncL_CH_A, GPIO_INPUT);
	GPIO_Set_Direction(EncL_CH_B, GPIO_INPUT);
	GPIO_Set_Direction(EncR_CH_A, GPIO_INPUT);
20000828:	ac430004 	sw	v1,4(v0)
	GPIO_Set_Direction(EncR_CH_B, GPIO_INPUT);
2000082c:	8c440004 	lw	a0,4(v0)
20000830:	3c03fffb 	lui	v1,0xfffb
20000834:	3463ffff 	ori	v1,v1,0xffff
20000838:	00831824 	and	v1,a0,v1

	WheelCounts_Left_G = 0;
2000083c:	af800088 	sw	zero,136(gp)
void Read_Enc_Init(void)
{
	GPIO_Set_Direction(EncL_CH_A, GPIO_INPUT);
	GPIO_Set_Direction(EncL_CH_B, GPIO_INPUT);
	GPIO_Set_Direction(EncR_CH_A, GPIO_INPUT);
	GPIO_Set_Direction(EncR_CH_B, GPIO_INPUT);
20000840:	ac430004 	sw	v1,4(v0)
20000844:	8c430004 	lw	v1,4(v0)

	EncSignal_A[0] = 0;								/* Signal A from left encoder */
	EncSignal_B[0] = 0;								/* Signal B from left encoder */

	EncSignal_A[1] = 0;								/* Signal A from right encoder */
	EncSignal_B[1] = 0;								/* Signal B from right encoder */
20000848:	af800128 	sw	zero,296(gp)
	GPIO_Set_Direction(EncL_CH_B, GPIO_INPUT);
	GPIO_Set_Direction(EncR_CH_A, GPIO_INPUT);
	GPIO_Set_Direction(EncR_CH_B, GPIO_INPUT);

	WheelCounts_Left_G = 0;
	WheelCounts_Right_G = 0;
2000084c:	af8000c8 	sw	zero,200(gp)
void Read_Enc_Init(void)
{
	GPIO_Set_Direction(EncL_CH_A, GPIO_INPUT);
	GPIO_Set_Direction(EncL_CH_B, GPIO_INPUT);
	GPIO_Set_Direction(EncR_CH_A, GPIO_INPUT);
	GPIO_Set_Direction(EncR_CH_B, GPIO_INPUT);
20000850:	ac430004 	sw	v1,4(v0)

	EncSignal_A[1] = 0;								/* Signal A from right encoder */
	EncSignal_B[1] = 0;								/* Signal B from right encoder */

	/* Left */
	RevCount[0] = 0;
20000854:	af80011c 	sw	zero,284(gp)
	EncoderCount[0] = 0;
20000858:	af80012c 	sw	zero,300(gp)
	WheelCount[0] = 0;
2000085c:	af80010c 	sw	zero,268(gp)

	/* Right */
	RevCount[1] = 0;
20000860:	af800120 	sw	zero,288(gp)
	EncoderCount[1] = 0;
20000864:	af800130 	sw	zero,304(gp)
	WheelCount[1] = 0;
20000868:	af800110 	sw	zero,272(gp)

	bufferTime = 0;
}
2000086c:	03e00008 	jr	ra
20000870:	a3800134 	sb	zero,308(gp)

20000874 <Read_Enc_Update>:
/**
 * Reads the value of the Encoders
 */
void Read_Enc_Update(void)
{
	if(System_Mode_G == Go)
20000874:	8f830104 	lw	v1,260(gp)
20000878:	24020002 	li	v0,2
2000087c:	1462005d 	bne	v1,v0,200009f4 <Read_Enc_Update+0x180>
20000880:	3c028000 	lui	v0,0x8000
	{
		/* Read signals from encoders */
		EncSignal_A[0] = GPIO_Get(EncL_CH_A);	/* Left_A;	Signal A from left encoder */
20000884:	34420500 	ori	v0,v0,0x500
20000888:	8c450000 	lw	a1,0(v0)
		EncSignal_B[0] = GPIO_Get(EncL_CH_B);	/* Left_B;	Signal B from left encoder */
2000088c:	8c440000 	lw	a0,0(v0)

		EncSignal_A[1] = GPIO_Get(EncR_CH_A);	/* Right_A;	Signal A from right encoder */
20000890:	8c430000 	lw	v1,0(v0)
		EncSignal_B[1] = GPIO_Get(EncR_CH_B);	/* Right_B;	Signal B from right encoder */
20000894:	8c420000 	lw	v0,0(v0)
void Read_Enc_Update(void)
{
	if(System_Mode_G == Go)
	{
		/* Read signals from encoders */
		EncSignal_A[0] = GPIO_Get(EncL_CH_A);	/* Left_A;	Signal A from left encoder */
20000898:	00052a82 	srl	a1,a1,0xa
		EncSignal_B[0] = GPIO_Get(EncL_CH_B);	/* Left_B;	Signal B from left encoder */
2000089c:	000422c2 	srl	a0,a0,0xb

		EncSignal_A[1] = GPIO_Get(EncR_CH_A);	/* Right_A;	Signal A from right encoder */
200008a0:	00031cc2 	srl	v1,v1,0x13
		EncSignal_B[1] = GPIO_Get(EncR_CH_B);	/* Right_B;	Signal B from right encoder */
200008a4:	00021482 	srl	v0,v0,0x12
void Read_Enc_Update(void)
{
	if(System_Mode_G == Go)
	{
		/* Read signals from encoders */
		EncSignal_A[0] = GPIO_Get(EncL_CH_A);	/* Left_A;	Signal A from left encoder */
200008a8:	30a50001 	andi	a1,a1,0x1
		EncSignal_B[0] = GPIO_Get(EncL_CH_B);	/* Left_B;	Signal B from left encoder */
200008ac:	30840001 	andi	a0,a0,0x1

		EncSignal_A[1] = GPIO_Get(EncR_CH_A);	/* Right_A;	Signal A from right encoder */
200008b0:	30630001 	andi	v1,v1,0x1
		EncSignal_B[1] = GPIO_Get(EncR_CH_B);	/* Right_B;	Signal B from right encoder */
200008b4:	30420001 	andi	v0,v0,0x1
void Read_Enc_Update(void)
{
	if(System_Mode_G == Go)
	{
		/* Read signals from encoders */
		EncSignal_A[0] = GPIO_Get(EncL_CH_A);	/* Left_A;	Signal A from left encoder */
200008b8:	af850114 	sw	a1,276(gp)
		EncSignal_B[0] = GPIO_Get(EncL_CH_B);	/* Left_B;	Signal B from left encoder */
200008bc:	af840124 	sw	a0,292(gp)

		EncSignal_A[1] = GPIO_Get(EncR_CH_A);	/* Right_A;	Signal A from right encoder */
200008c0:	af830118 	sw	v1,280(gp)
		EncSignal_B[1] = GPIO_Get(EncR_CH_B);	/* Right_B;	Signal B from right encoder */
200008c4:	af820128 	sw	v0,296(gp)
200008c8:	27840140 	addiu	a0,gp,320
200008cc:	2783012c 	addiu	v1,gp,300
200008d0:	27860138 	addiu	a2,gp,312
200008d4:	27890114 	addiu	t1,gp,276
200008d8:	27880124 	addiu	t0,gp,292
200008dc:	00002821 	move	a1,zero

		/* Loop through both sides */
		for(uint8_t i = 0; i <= 1; i ++)
		{
			if(Pulse_Flag[i] == High)
200008e0:	24020001 	li	v0,1
				}

				/* Full cycle detection when both signals dropped off */
				else if((EncSignal_A[i] == Low) && (EncSignal_B[i] == Low))
				{
					switch(WheelDirection[i])
200008e4:	240a0002 	li	t2,2
				WheelDirection[i] = WheelDirection[i];
				Pulse_Flag[i] = Pulse_Flag[i];
			}

			/* Calculate total counts for wheel */
			WheelCount[i] = ((RevCount[i] * ROBOT_ENC_COUNTS_PER_REV) + EncoderCount[i]);
200008e8:	278e010c 	addiu	t6,gp,268
200008ec:	278d011c 	addiu	t5,gp,284

		EncSignal_A[1] = GPIO_Get(EncR_CH_A);	/* Right_A;	Signal A from right encoder */
		EncSignal_B[1] = GPIO_Get(EncR_CH_B);	/* Right_B;	Signal B from right encoder */

		/* Loop through both sides */
		for(uint8_t i = 0; i <= 1; i ++)
200008f0:	240c0008 	li	t4,8
		{
			if(Pulse_Flag[i] == High)
200008f4:	8c8b0000 	lw	t3,0(a0)
200008f8:	8d270000 	lw	a3,0(t1)
200008fc:	15620020 	bne	t3,v0,20000980 <Read_Enc_Update+0x10c>
20000900:	00000000 	nop
			{
				/* Direction detection on single signal drop-off */
				if(EncSignal_A[i] != EncSignal_B[i])
20000904:	8d0b0000 	lw	t3,0(t0)
20000908:	00000000 	nop
2000090c:	10eb0009 	beq	a3,t3,20000934 <Read_Enc_Update+0xc0>
20000910:	00000000 	nop
				{
					switch(EncSignal_A[i])
20000914:	10e00005 	beqz	a3,2000092c <Read_Enc_Update+0xb8>
20000918:	00000000 	nop
2000091c:	14e20022 	bne	a3,v0,200009a8 <Read_Enc_Update+0x134>
20000920:	00ad3821 	addu	a3,a1,t5
					{
						case High:
							WheelDirection[i] = Reverse;
							break;
20000924:	0800026a 	j	200009a8 <Read_Enc_Update+0x134>
20000928:	acca0000 	sw	t2,0(a2)
						case Low:
							WheelDirection[i] = Forwards;
2000092c:	08000269 	j	200009a4 <Read_Enc_Update+0x130>
20000930:	acc20000 	sw	v0,0(a2)
							break;
					}
				}

				/* Full cycle detection when both signals dropped off */
				else if((EncSignal_A[i] == Low) && (EncSignal_B[i] == Low))
20000934:	14e0001c 	bnez	a3,200009a8 <Read_Enc_Update+0x134>
20000938:	00ad3821 	addu	a3,a1,t5
				{
					switch(WheelDirection[i])
2000093c:	8cc70000 	lw	a3,0(a2)
20000940:	00000000 	nop
20000944:	10e20005 	beq	a3,v0,2000095c <Read_Enc_Update+0xe8>
20000948:	00000000 	nop
2000094c:	14ea000a 	bne	a3,t2,20000978 <Read_Enc_Update+0x104>
20000950:	00000000 	nop
20000954:	0800025a 	j	20000968 <Read_Enc_Update+0xf4>
20000958:	00000000 	nop
					{
						case Forwards:
							EncoderCount[i] ++;
2000095c:	8c670000 	lw	a3,0(v1)
20000960:	0800025d 	j	20000974 <Read_Enc_Update+0x100>
20000964:	24e70001 	addiu	a3,a3,1
							break;
						case Reverse:
							EncoderCount[i] --;
20000968:	8c670000 	lw	a3,0(v1)
2000096c:	00000000 	nop
20000970:	24e7ffff 	addiu	a3,a3,-1
20000974:	ac670000 	sw	a3,0(v1)
						case Off:
							break;
						default:
							break;
					}
					Pulse_Flag[i] = Low;
20000978:	08000269 	j	200009a4 <Read_Enc_Update+0x130>
2000097c:	ac800000 	sw	zero,0(a0)
				}
			}
			/* Wait for both A and B to be high to raise Pulse_Flag */
			else if((EncSignal_A[i] == High) && (EncSignal_B[i] == High))
20000980:	14e20007 	bne	a3,v0,200009a0 <Read_Enc_Update+0x12c>
20000984:	00000000 	nop
20000988:	8d070000 	lw	a3,0(t0)
2000098c:	00000000 	nop
20000990:	14e20003 	bne	a3,v0,200009a0 <Read_Enc_Update+0x12c>
20000994:	00000000 	nop
20000998:	08000269 	j	200009a4 <Read_Enc_Update+0x130>
2000099c:	ac820000 	sw	v0,0(a0)
			/* ET Padding to reduce jitter */
			else
			{
				EncoderCount[i] = EncoderCount[i];
				WheelDirection[i] = WheelDirection[i];
				Pulse_Flag[i] = Pulse_Flag[i];
200009a0:	ac8b0000 	sw	t3,0(a0)
			}

			/* Calculate total counts for wheel */
			WheelCount[i] = ((RevCount[i] * ROBOT_ENC_COUNTS_PER_REV) + EncoderCount[i]);
200009a4:	00ad3821 	addu	a3,a1,t5
200009a8:	8ceb0000 	lw	t3,0(a3)
200009ac:	8c670000 	lw	a3,0(v1)
200009b0:	000b59c0 	sll	t3,t3,0x7
200009b4:	01675821 	addu	t3,t3,a3
200009b8:	00ae3821 	addu	a3,a1,t6
200009bc:	24a50004 	addiu	a1,a1,4
200009c0:	aceb0000 	sw	t3,0(a3)
200009c4:	24840004 	addiu	a0,a0,4
200009c8:	24630004 	addiu	v1,v1,4
200009cc:	24c60004 	addiu	a2,a2,4
200009d0:	25290004 	addiu	t1,t1,4

		EncSignal_A[1] = GPIO_Get(EncR_CH_A);	/* Right_A;	Signal A from right encoder */
		EncSignal_B[1] = GPIO_Get(EncR_CH_B);	/* Right_B;	Signal B from right encoder */

		/* Loop through both sides */
		for(uint8_t i = 0; i <= 1; i ++)
200009d4:	14acffc7 	bne	a1,t4,200008f4 <Read_Enc_Update+0x80>
200009d8:	25080004 	addiu	t0,t0,4
			/* Calculate total counts for wheel */
			WheelCount[i] = ((RevCount[i] * ROBOT_ENC_COUNTS_PER_REV) + EncoderCount[i]);
		}

		/* Output distance wheels have travelled to global variable */
		WheelCounts_Left_G = WheelCount[0];
200009dc:	8f82010c 	lw	v0,268(gp)
200009e0:	00000000 	nop
200009e4:	af820088 	sw	v0,136(gp)
		WheelCounts_Right_G = WheelCount[1];
200009e8:	8f820110 	lw	v0,272(gp)
200009ec:	03e00008 	jr	ra
200009f0:	af8200c8 	sw	v0,200(gp)
	}
	else
	{
		WheelCount[0] = 0;
200009f4:	af80010c 	sw	zero,268(gp)
		WheelCount[1] = 0;
200009f8:	03e00008 	jr	ra
200009fc:	af800110 	sw	zero,272(gp)

20000a00 <speedControlRight>:

uint16_t speedControlRight(Bool correctionL, Bool correctionR)
{
	static uint16_t speed;

	if(Right_motor_speed_G == 0)
20000a00:	978200b2 	lhu	v0,178(gp)
20000a04:	00000000 	nop
20000a08:	14400002 	bnez	v0,20000a14 <speedControlRight+0x14>
20000a0c:	2402000c 	li	v0,12
	{
		Right_motor_speed_G = CRAWL_SPEED;
20000a10:	a78200b2 	sh	v0,178(gp)
	}

	if((correctionL == False) && (correctionR == True))
20000a14:	14800006 	bnez	a0,20000a30 <speedControlRight+0x30>
20000a18:	24020001 	li	v0,1
20000a1c:	14a2000c 	bne	a1,v0,20000a50 <speedControlRight+0x50>
20000a20:	00000000 	nop
	{
		Right_motor_speed_G++;
20000a24:	978200b2 	lhu	v0,178(gp)
20000a28:	08000293 	j	20000a4c <speedControlRight+0x4c>
20000a2c:	24420001 	addiu	v0,v0,1
	}
	else if((correctionL == True) && (correctionR == False))
20000a30:	14820007 	bne	a0,v0,20000a50 <speedControlRight+0x50>
20000a34:	00000000 	nop
20000a38:	14a00005 	bnez	a1,20000a50 <speedControlRight+0x50>
20000a3c:	00000000 	nop
	{
		Right_motor_speed_G--;
20000a40:	978200b2 	lhu	v0,178(gp)
20000a44:	00000000 	nop
20000a48:	2442ffff 	addiu	v0,v0,-1
20000a4c:	a78200b2 	sh	v0,178(gp)
	}

	if(Right_motor_speed_G < (CRAWL_SPEED - CORRECTION_VALUE_LOWER))
20000a50:	978200b2 	lhu	v0,178(gp)
20000a54:	00000000 	nop
20000a58:	2c42000c 	sltiu	v0,v0,12
20000a5c:	10400002 	beqz	v0,20000a68 <speedControlRight+0x68>
20000a60:	2402000c 	li	v0,12
	{
		Right_motor_speed_G = (CRAWL_SPEED - CORRECTION_VALUE_LOWER);
20000a64:	a78200b2 	sh	v0,178(gp)
	}

	if(Right_motor_speed_G > (CRAWL_SPEED + CORRECTION_VALUE_UPPER))
20000a68:	978200b2 	lhu	v0,178(gp)
20000a6c:	00000000 	nop
20000a70:	2c42000f 	sltiu	v0,v0,15
20000a74:	14400003 	bnez	v0,20000a84 <speedControlRight+0x84>
20000a78:	00000000 	nop
	{
		Right_motor_speed_G = CRAWL_SPEED + CORRECTION_VALUE_UPPER;
20000a7c:	2402000e 	li	v0,14
20000a80:	a78200b2 	sh	v0,178(gp)
	}

	return speed;
}
20000a84:	03e00008 	jr	ra
20000a88:	00001021 	move	v0,zero

20000a8c <visualsRt>:
	return result;
}

void visualsRt(void)
{
	if(System_Mode_G == Go || System_Mode_G == Game_Over)
20000a8c:	8f820104 	lw	v0,260(gp)
	result = (uint16_t)(speed);
	return result;
}

void visualsRt(void)
{
20000a90:	27bdffe0 	addiu	sp,sp,-32
	if(System_Mode_G == Go || System_Mode_G == Game_Over)
20000a94:	24030002 	li	v1,2
	result = (uint16_t)(speed);
	return result;
}

void visualsRt(void)
{
20000a98:	afbf001c 	sw	ra,28(sp)
20000a9c:	afb10018 	sw	s1,24(sp)
	if(System_Mode_G == Go || System_Mode_G == Game_Over)
20000aa0:	10430004 	beq	v0,v1,20000ab4 <visualsRt+0x28>
20000aa4:	afb00014 	sw	s0,20(sp)
20000aa8:	24030004 	li	v1,4
20000aac:	14430009 	bne	v0,v1,20000ad4 <visualsRt+0x48>
20000ab0:	00000000 	nop
	{
		Segment_Set_Decimal(displayA);
20000ab4:	8f84ffdc 	lw	a0,-36(gp)
20000ab8:	0c000b1f 	jal	20002c7c <Segment_Set_Decimal>
20000abc:	00000000 	nop
		Segment_Set_Decimal(displayB);
20000ac0:	8f84ffe0 	lw	a0,-32(gp)
20000ac4:	0c000b1f 	jal	20002c7c <Segment_Set_Decimal>
20000ac8:	00000000 	nop
	return result;
}

void visualsRt(void)
{
	if(System_Mode_G == Go || System_Mode_G == Game_Over)
20000acc:	080002bb 	j	20000aec <visualsRt+0x60>
20000ad0:	00000000 	nop
		Segment_Set_Decimal(displayA);
		Segment_Set_Decimal(displayB);
	}
	else
	{
		Segment_Clear_Decimal(displayA);
20000ad4:	8f84ffdc 	lw	a0,-36(gp)
20000ad8:	0c000af9 	jal	20002be4 <Segment_Clear_Decimal>
20000adc:	00000000 	nop
		Segment_Clear_Decimal(displayB);
20000ae0:	8f84ffe0 	lw	a0,-32(gp)
20000ae4:	0c000af9 	jal	20002be4 <Segment_Clear_Decimal>
20000ae8:	00000000 	nop
	}

	if(
		Right_motor_direction_G == Forwards
		&& Right_motor_speed_G != 0
20000aec:	8f830084 	lw	v1,132(gp)
	{
		Segment_Clear_Decimal(displayA);
		Segment_Clear_Decimal(displayB);
	}

	if(
20000af0:	24020001 	li	v0,1
20000af4:	1462000f 	bne	v1,v0,20000b34 <visualsRt+0xa8>
20000af8:	3c028000 	lui	v0,0x8000
20000afc:	978200b2 	lhu	v0,178(gp)
20000b00:	00000000 	nop
20000b04:	1040000b 	beqz	v0,20000b34 <visualsRt+0xa8>
20000b08:	3c028000 	lui	v0,0x8000
		Right_motor_direction_G == Forwards
		&& Right_motor_speed_G != 0
		)
	{
		GPIO_Write(LED_Pin_RtFd, GPIO_HIGH);
20000b0c:	34420200 	ori	v0,v0,0x200
20000b10:	8c430000 	lw	v1,0(v0)
20000b14:	00000000 	nop
20000b18:	ac430000 	sw	v1,0(v0)
20000b1c:	8c430000 	lw	v1,0(v0)
20000b20:	00000000 	nop
20000b24:	34630002 	ori	v1,v1,0x2
20000b28:	ac430000 	sw	v1,0(v0)
20000b2c:	080002dc 	j	20000b70 <visualsRt+0xe4>
20000b30:	00000000 	nop
	}
	else
	{
		GPIO_Write(LED_Pin_RtFd, GPIO_LOW);
20000b34:	34420200 	ori	v0,v0,0x200
20000b38:	8c450000 	lw	a1,0(v0)
20000b3c:	2404fffd 	li	a0,-3
20000b40:	00a42024 	and	a0,a1,a0
20000b44:	ac440000 	sw	a0,0(v0)
20000b48:	8c440000 	lw	a0,0(v0)
20000b4c:	00000000 	nop
20000b50:	ac440000 	sw	a0,0(v0)
	}

	if(( Right_motor_direction_G == Reverse && Right_motor_speed_G != 0) || (Course_correction_Rt == True))
20000b54:	24020002 	li	v0,2
20000b58:	14620005 	bne	v1,v0,20000b70 <visualsRt+0xe4>
20000b5c:	00000000 	nop
20000b60:	978200b2 	lhu	v0,178(gp)
20000b64:	00000000 	nop
20000b68:	14400005 	bnez	v0,20000b80 <visualsRt+0xf4>
20000b6c:	3c028000 	lui	v0,0x8000
20000b70:	8f830064 	lw	v1,100(gp)
20000b74:	24020001 	li	v0,1
20000b78:	14620008 	bne	v1,v0,20000b9c <visualsRt+0x110>
20000b7c:	3c028000 	lui	v0,0x8000
	{
		GPIO_Write(LED_Pin_RtBd, GPIO_HIGH);
20000b80:	34420200 	ori	v0,v0,0x200
20000b84:	8c430000 	lw	v1,0(v0)
20000b88:	00000000 	nop
20000b8c:	ac430000 	sw	v1,0(v0)
20000b90:	8c430000 	lw	v1,0(v0)
20000b94:	080002ed 	j	20000bb4 <visualsRt+0x128>
20000b98:	34630001 	ori	v1,v1,0x1
	}
	else
	{
		GPIO_Write(LED_Pin_RtBd, GPIO_LOW);
20000b9c:	34420200 	ori	v0,v0,0x200
20000ba0:	8c440000 	lw	a0,0(v0)
20000ba4:	2403fffe 	li	v1,-2
20000ba8:	00831824 	and	v1,a0,v1
20000bac:	ac430000 	sw	v1,0(v0)
20000bb0:	8c430000 	lw	v1,0(v0)
	}

	Segment_Write(displayA, (sensorReadings.USFwd & 0x000F) >> 0);
20000bb4:	3c114000 	lui	s1,0x4000
20000bb8:	263003dc 	addiu	s0,s1,988
	{
		GPIO_Write(LED_Pin_RtBd, GPIO_HIGH);
	}
	else
	{
		GPIO_Write(LED_Pin_RtBd, GPIO_LOW);
20000bbc:	ac430000 	sw	v1,0(v0)
	}

	Segment_Write(displayA, (sensorReadings.USFwd & 0x000F) >> 0);
20000bc0:	92050008 	lbu	a1,8(s0)
20000bc4:	8f84ffdc 	lw	a0,-36(gp)
20000bc8:	0c000b44 	jal	20002d10 <Segment_Write>
20000bcc:	30a5000f 	andi	a1,a1,0xf
	Segment_Write(displayB, (sensorReadings.USFwd & 0x00F0) >> 4);
20000bd0:	8e050008 	lw	a1,8(s0)
20000bd4:	8f84ffe0 	lw	a0,-32(gp)
20000bd8:	30a500f0 	andi	a1,a1,0xf0
20000bdc:	0c000b44 	jal	20002d10 <Segment_Write>
20000be0:	00052902 	srl	a1,a1,0x4
	Segment_Write(displayC, (sensorReadings.USFwd & 0x0F00) >> 8);
20000be4:	8e050008 	lw	a1,8(s0)
20000be8:	8f84ffe4 	lw	a0,-28(gp)
20000bec:	30a50f00 	andi	a1,a1,0xf00
20000bf0:	0c000b44 	jal	20002d10 <Segment_Write>
20000bf4:	00052a02 	srl	a1,a1,0x8

//	Segment_Write(displayA, (sensorReadings.IRRight & 0x000F) >> 0);
//	Segment_Write(displayB, (sensorReadings.IRRight & 0x00F0) >> 4);
//	Segment_Write(displayC, (sensorReadings.IRLeft & 0x000F) >> 0);
	Segment_Write(displayD, (sensorReadings.IRLeft & 0x00F0) >> 4);
20000bf8:	8e2503dc 	lw	a1,988(s1)
20000bfc:	8f84ffe8 	lw	a0,-24(gp)
20000c00:	30a500f0 	andi	a1,a1,0xf0

}
20000c04:	8fbf001c 	lw	ra,28(sp)
20000c08:	8fb10018 	lw	s1,24(sp)
20000c0c:	8fb00014 	lw	s0,20(sp)
	Segment_Write(displayC, (sensorReadings.USFwd & 0x0F00) >> 8);

//	Segment_Write(displayA, (sensorReadings.IRRight & 0x000F) >> 0);
//	Segment_Write(displayB, (sensorReadings.IRRight & 0x00F0) >> 4);
//	Segment_Write(displayC, (sensorReadings.IRLeft & 0x000F) >> 0);
	Segment_Write(displayD, (sensorReadings.IRLeft & 0x00F0) >> 4);
20000c10:	00052902 	srl	a1,a1,0x4
20000c14:	08000b44 	j	20002d10 <Segment_Write>
20000c18:	27bd0020 	addiu	sp,sp,32

20000c1c <Motor_Right_Update>:
/**
 * Motor_Right controller operation
 */
void Motor_Right_Update(void)
{
	if(System_Mode_G == Go)
20000c1c:	8f850104 	lw	a1,260(gp)

/**
 * Motor_Right controller operation
 */
void Motor_Right_Update(void)
{
20000c20:	27bdffe8 	addiu	sp,sp,-24
	if(System_Mode_G == Go)
20000c24:	24020002 	li	v0,2
20000c28:	14a20034 	bne	a1,v0,20000cfc <Motor_Right_Update+0xe0>
20000c2c:	afbf0014 	sw	ra,20(sp)
	{
		/* Calculate the absolute value of encoder counts since previous update */
		Enc_Rt_Diff = (WheelCounts_Right_G - Enc_Rt_Old);
20000c30:	8f8400c8 	lw	a0,200(gp)
20000c34:	8f830150 	lw	v1,336(gp)

		/* Encoder counting */
		if(movement_G == Fd || movement_G == Lf)
20000c38:	8f8200ec 	lw	v0,236(gp)
void Motor_Right_Update(void)
{
	if(System_Mode_G == Go)
	{
		/* Calculate the absolute value of encoder counts since previous update */
		Enc_Rt_Diff = (WheelCounts_Right_G - Enc_Rt_Old);
20000c3c:	00831823 	subu	v1,a0,v1

		/* Encoder counting */
		if(movement_G == Fd || movement_G == Lf)
20000c40:	24060001 	li	a2,1
20000c44:	10460004 	beq	v0,a2,20000c58 <Motor_Right_Update+0x3c>
20000c48:	af830154 	sw	v1,340(gp)
20000c4c:	24060003 	li	a2,3
20000c50:	14460004 	bne	v0,a2,20000c64 <Motor_Right_Update+0x48>
20000c54:	00000000 	nop
		{
			Motor_Rt_Enc_Track += Enc_Rt_Diff;
20000c58:	8f8500d8 	lw	a1,216(gp)
20000c5c:	08000320 	j	20000c80 <Motor_Right_Update+0x64>
20000c60:	00a31821 	addu	v1,a1,v1
		}
		else if(movement_G == Bd || movement_G == Rt)
20000c64:	10450003 	beq	v0,a1,20000c74 <Motor_Right_Update+0x58>
20000c68:	24050004 	li	a1,4
20000c6c:	14450005 	bne	v0,a1,20000c84 <Motor_Right_Update+0x68>
20000c70:	00000000 	nop
		{
			Motor_Rt_Enc_Track -= Enc_Rt_Diff;
20000c74:	8f8500d8 	lw	a1,216(gp)
20000c78:	00000000 	nop
20000c7c:	00a31823 	subu	v1,a1,v1
20000c80:	af8300d8 	sw	v1,216(gp)
		}

		Enc_Rt_Old = WheelCounts_Right_G;

		/* Script reader */
		switch(movement_G)
20000c84:	24030002 	li	v1,2
20000c88:	10430017 	beq	v0,v1,20000ce8 <Motor_Right_Update+0xcc>
20000c8c:	af840150 	sw	a0,336(gp)
20000c90:	2c430003 	sltiu	v1,v0,3
20000c94:	10600006 	beqz	v1,20000cb0 <Motor_Right_Update+0x94>
20000c98:	24030003 	li	v1,3
20000c9c:	24030001 	li	v1,1
20000ca0:	14430017 	bne	v0,v1,20000d00 <Motor_Right_Update+0xe4>
20000ca4:	00000000 	nop
20000ca8:	08000332 	j	20000cc8 <Motor_Right_Update+0xac>
20000cac:	00000000 	nop
20000cb0:	1043000b 	beq	v0,v1,20000ce0 <Motor_Right_Update+0xc4>
20000cb4:	24030004 	li	v1,4
20000cb8:	14430011 	bne	v0,v1,20000d00 <Motor_Right_Update+0xe4>
20000cbc:	24020002 	li	v0,2
			Right_motor_direction_G = Forwards;
			Right_motor_speed_G = CRAWL_SPEED-2;
			break;
		case Bd:
		case Rt:
			Right_motor_direction_G = Reverse;
20000cc0:	0800033c 	j	20000cf0 <Motor_Right_Update+0xd4>
20000cc4:	af820084 	sw	v0,132(gp)
		/* Script reader */
		switch(movement_G)
		{
		case Fd:
			Right_motor_direction_G = Forwards;
			speedControlRight(Course_correction_Lf, Course_correction_Rt);
20000cc8:	8f840074 	lw	a0,116(gp)
20000ccc:	8f850064 	lw	a1,100(gp)
20000cd0:	0c000280 	jal	20000a00 <speedControlRight>
20000cd4:	af820084 	sw	v0,132(gp)
			break;
20000cd8:	08000344 	j	20000d10 <Motor_Right_Update+0xf4>
20000cdc:	00000000 	nop
		case Lf:
			Right_motor_direction_G = Forwards;
20000ce0:	0800033b 	j	20000cec <Motor_Right_Update+0xd0>
20000ce4:	24020001 	li	v0,1
			Right_motor_speed_G = CRAWL_SPEED-2;
			break;
		case Bd:
		case Rt:
			Right_motor_direction_G = Reverse;
20000ce8:	24020002 	li	v0,2
20000cec:	af820084 	sw	v0,132(gp)
			Right_motor_speed_G = CRAWL_SPEED-2;
20000cf0:	2402000a 	li	v0,10
			break;
20000cf4:	08000344 	j	20000d10 <Motor_Right_Update+0xf4>
20000cf8:	a78200b2 	sh	v0,178(gp)
			break;
		}
	}
	else
	{
		Right_motor_direction_G = Off;
20000cfc:	af800084 	sw	zero,132(gp)
		Right_motor_speed_G = 0;
20000d00:	a78000b2 	sh	zero,178(gp)
		Motor_Rt_Enc_Track = 0;
20000d04:	af8000d8 	sw	zero,216(gp)
		Enc_Rt_Diff = 0;
20000d08:	af800154 	sw	zero,340(gp)
		Enc_Rt_Old = 0;
20000d0c:	af800150 	sw	zero,336(gp)
	}

	visualsRt();
}
20000d10:	8fbf0014 	lw	ra,20(sp)
		Motor_Rt_Enc_Track = 0;
		Enc_Rt_Diff = 0;
		Enc_Rt_Old = 0;
	}

	visualsRt();
20000d14:	080002a3 	j	20000a8c <visualsRt>
20000d18:	27bd0018 	addiu	sp,sp,24

20000d1c <Motor_Right_Init>:
	/* Task initialisation */
	Right_motor_direction_G = Off;
	Right_motor_speed_G = 0;
	Motor_Rt_Enc_Track = 0;

	GPIO_Set_Direction(LED_Pin_RtFd, GPIO_OUTPUT);
20000d1c:	3c038000 	lui	v1,0x8000
20000d20:	34620200 	ori	v0,v1,0x200
20000d24:	8c450004 	lw	a1,4(v0)
20000d28:	2404fffd 	li	a0,-3
20000d2c:	00a42824 	and	a1,a1,a0
20000d30:	ac450004 	sw	a1,4(v0)
20000d34:	8c460004 	lw	a2,4(v0)
	GPIO_Write(LED_Pin_RtFd, GPIO_LOW);
	GPIO_Set_Direction(LED_Pin_RtBd, GPIO_OUTPUT);
20000d38:	2405fffe 	li	a1,-2
	/* Task initialisation */
	Right_motor_direction_G = Off;
	Right_motor_speed_G = 0;
	Motor_Rt_Enc_Track = 0;

	GPIO_Set_Direction(LED_Pin_RtFd, GPIO_OUTPUT);
20000d3c:	34c60002 	ori	a2,a2,0x2
20000d40:	ac460004 	sw	a2,4(v0)
	GPIO_Write(LED_Pin_RtFd, GPIO_LOW);
20000d44:	8c460000 	lw	a2,0(v0)
	GPIO_Set_Direction(LED_Pin_RtBd, GPIO_OUTPUT);
	GPIO_Write(LED_Pin_RtBd, GPIO_LOW);
	GPIO_Set_Direction(Right_SW, GPIO_INPUT);
20000d48:	34630500 	ori	v1,v1,0x500
	Right_motor_direction_G = Off;
	Right_motor_speed_G = 0;
	Motor_Rt_Enc_Track = 0;

	GPIO_Set_Direction(LED_Pin_RtFd, GPIO_OUTPUT);
	GPIO_Write(LED_Pin_RtFd, GPIO_LOW);
20000d4c:	00c42024 	and	a0,a2,a0
20000d50:	ac440000 	sw	a0,0(v0)
20000d54:	8c440000 	lw	a0,0(v0)
/**
 * Initialisation for the Motor_Right package.
 * This will be called from Tasks_Init by default.
 */
void Motor_Right_Init(void)
{
20000d58:	27bdffe8 	addiu	sp,sp,-24
	Right_motor_direction_G = Off;
	Right_motor_speed_G = 0;
	Motor_Rt_Enc_Track = 0;

	GPIO_Set_Direction(LED_Pin_RtFd, GPIO_OUTPUT);
	GPIO_Write(LED_Pin_RtFd, GPIO_LOW);
20000d5c:	ac440000 	sw	a0,0(v0)
	GPIO_Set_Direction(LED_Pin_RtBd, GPIO_OUTPUT);
20000d60:	8c460004 	lw	a2,4(v0)
	GPIO_Write(LED_Pin_RtBd, GPIO_LOW);
	GPIO_Set_Direction(Right_SW, GPIO_INPUT);

	Segment_Enable(displayA);
20000d64:	8f84ffdc 	lw	a0,-36(gp)
	Right_motor_speed_G = 0;
	Motor_Rt_Enc_Track = 0;

	GPIO_Set_Direction(LED_Pin_RtFd, GPIO_OUTPUT);
	GPIO_Write(LED_Pin_RtFd, GPIO_LOW);
	GPIO_Set_Direction(LED_Pin_RtBd, GPIO_OUTPUT);
20000d68:	00c53024 	and	a2,a2,a1
20000d6c:	ac460004 	sw	a2,4(v0)
20000d70:	8c460004 	lw	a2,4(v0)
/**
 * Initialisation for the Motor_Right package.
 * This will be called from Tasks_Init by default.
 */
void Motor_Right_Init(void)
{
20000d74:	afbf0014 	sw	ra,20(sp)
	Right_motor_speed_G = 0;
	Motor_Rt_Enc_Track = 0;

	GPIO_Set_Direction(LED_Pin_RtFd, GPIO_OUTPUT);
	GPIO_Write(LED_Pin_RtFd, GPIO_LOW);
	GPIO_Set_Direction(LED_Pin_RtBd, GPIO_OUTPUT);
20000d78:	34c60001 	ori	a2,a2,0x1
20000d7c:	ac460004 	sw	a2,4(v0)
	GPIO_Write(LED_Pin_RtBd, GPIO_LOW);
20000d80:	8c460000 	lw	a2,0(v0)
 * This will be called from Tasks_Init by default.
 */
void Motor_Right_Init(void)
{
	/* Task initialisation */
	Right_motor_direction_G = Off;
20000d84:	af800084 	sw	zero,132(gp)
	Motor_Rt_Enc_Track = 0;

	GPIO_Set_Direction(LED_Pin_RtFd, GPIO_OUTPUT);
	GPIO_Write(LED_Pin_RtFd, GPIO_LOW);
	GPIO_Set_Direction(LED_Pin_RtBd, GPIO_OUTPUT);
	GPIO_Write(LED_Pin_RtBd, GPIO_LOW);
20000d88:	00c52824 	and	a1,a2,a1
20000d8c:	ac450000 	sw	a1,0(v0)
20000d90:	8c450000 	lw	a1,0(v0)
void Motor_Right_Init(void)
{
	/* Task initialisation */
	Right_motor_direction_G = Off;
	Right_motor_speed_G = 0;
	Motor_Rt_Enc_Track = 0;
20000d94:	af8000d8 	sw	zero,216(gp)

	GPIO_Set_Direction(LED_Pin_RtFd, GPIO_OUTPUT);
	GPIO_Write(LED_Pin_RtFd, GPIO_LOW);
	GPIO_Set_Direction(LED_Pin_RtBd, GPIO_OUTPUT);
	GPIO_Write(LED_Pin_RtBd, GPIO_LOW);
20000d98:	ac450000 	sw	a1,0(v0)
	GPIO_Set_Direction(Right_SW, GPIO_INPUT);
20000d9c:	8c650004 	lw	a1,4(v1)
20000da0:	2402ffdf 	li	v0,-33
20000da4:	00a21024 	and	v0,a1,v0
20000da8:	ac620004 	sw	v0,4(v1)
20000dac:	8c620004 	lw	v0,4(v1)
 */
void Motor_Right_Init(void)
{
	/* Task initialisation */
	Right_motor_direction_G = Off;
	Right_motor_speed_G = 0;
20000db0:	a78000b2 	sh	zero,178(gp)

	GPIO_Set_Direction(LED_Pin_RtFd, GPIO_OUTPUT);
	GPIO_Write(LED_Pin_RtFd, GPIO_LOW);
	GPIO_Set_Direction(LED_Pin_RtBd, GPIO_OUTPUT);
	GPIO_Write(LED_Pin_RtBd, GPIO_LOW);
	GPIO_Set_Direction(Right_SW, GPIO_INPUT);
20000db4:	ac620004 	sw	v0,4(v1)

	Segment_Enable(displayA);
20000db8:	0c000b71 	jal	20002dc4 <Segment_Enable>
20000dbc:	00000000 	nop
	Segment_Write(displayA, 0x0);
20000dc0:	8f84ffdc 	lw	a0,-36(gp)
20000dc4:	0c000b44 	jal	20002d10 <Segment_Write>
20000dc8:	00002821 	move	a1,zero
	Segment_Clear_Decimal(displayA);
20000dcc:	8f84ffdc 	lw	a0,-36(gp)
20000dd0:	0c000af9 	jal	20002be4 <Segment_Clear_Decimal>
20000dd4:	00000000 	nop
	Segment_Enable(displayB);
20000dd8:	8f84ffe0 	lw	a0,-32(gp)
20000ddc:	0c000b71 	jal	20002dc4 <Segment_Enable>
20000de0:	00000000 	nop
	Segment_Write(displayB, 0x0);
20000de4:	8f84ffe0 	lw	a0,-32(gp)
20000de8:	0c000b44 	jal	20002d10 <Segment_Write>
20000dec:	00002821 	move	a1,zero
	Segment_Clear_Decimal(displayB);
20000df0:	8f84ffe0 	lw	a0,-32(gp)
}
20000df4:	8fbf0014 	lw	ra,20(sp)
	Segment_Enable(displayA);
	Segment_Write(displayA, 0x0);
	Segment_Clear_Decimal(displayA);
	Segment_Enable(displayB);
	Segment_Write(displayB, 0x0);
	Segment_Clear_Decimal(displayB);
20000df8:	08000af9 	j	20002be4 <Segment_Clear_Decimal>
20000dfc:	27bd0018 	addiu	sp,sp,24

20000e00 <visualsLf>:
	return result;
}

void visualsLf(void)
{
	if(System_Mode_G == Game_Over)
20000e00:	8f830104 	lw	v1,260(gp)
	result = (uint16_t)(speed);
	return result;
}

void visualsLf(void)
{
20000e04:	27bdffe8 	addiu	sp,sp,-24
	if(System_Mode_G == Game_Over)
20000e08:	24020004 	li	v0,4
20000e0c:	14620009 	bne	v1,v0,20000e34 <visualsLf+0x34>
20000e10:	afbf0014 	sw	ra,20(sp)
	{
		Segment_Set_Decimal(displayC);
20000e14:	8f84ffec 	lw	a0,-20(gp)
20000e18:	0c000b1f 	jal	20002c7c <Segment_Set_Decimal>
20000e1c:	00000000 	nop
		Segment_Set_Decimal(displayD);
20000e20:	8f84fff0 	lw	a0,-16(gp)
20000e24:	0c000b1f 	jal	20002c7c <Segment_Set_Decimal>
20000e28:	00000000 	nop
20000e2c:	08000393 	j	20000e4c <visualsLf+0x4c>
20000e30:	00000000 	nop
	}
	else
	{
		Segment_Clear_Decimal(displayC);
20000e34:	8f84ffec 	lw	a0,-20(gp)
20000e38:	0c000af9 	jal	20002be4 <Segment_Clear_Decimal>
20000e3c:	00000000 	nop
		Segment_Clear_Decimal(displayD);
20000e40:	8f84fff0 	lw	a0,-16(gp)
20000e44:	0c000af9 	jal	20002be4 <Segment_Clear_Decimal>
20000e48:	00000000 	nop
	}

	if(
		Left_motor_direction_G == Forwards
		&& Left_motor_speed_G != 0
20000e4c:	8f830094 	lw	v1,148(gp)
	{
		Segment_Clear_Decimal(displayC);
		Segment_Clear_Decimal(displayD);
	}

	if(
20000e50:	24020001 	li	v0,1
20000e54:	1462000f 	bne	v1,v0,20000e94 <visualsLf+0x94>
20000e58:	3c028000 	lui	v0,0x8000
20000e5c:	978200b0 	lhu	v0,176(gp)
20000e60:	00000000 	nop
20000e64:	1040000b 	beqz	v0,20000e94 <visualsLf+0x94>
20000e68:	3c028000 	lui	v0,0x8000
		Left_motor_direction_G == Forwards
		&& Left_motor_speed_G != 0
		)
	{
		GPIO_Write(LED_Pin_LfFd, GPIO_HIGH);
20000e6c:	34420200 	ori	v0,v0,0x200
20000e70:	8c430000 	lw	v1,0(v0)
20000e74:	00000000 	nop
20000e78:	ac430000 	sw	v1,0(v0)
20000e7c:	8c430000 	lw	v1,0(v0)
20000e80:	00000000 	nop
20000e84:	34630008 	ori	v1,v1,0x8
20000e88:	ac430000 	sw	v1,0(v0)
20000e8c:	080003b4 	j	20000ed0 <visualsLf+0xd0>
20000e90:	00000000 	nop
	}
	else
	{
		GPIO_Write(LED_Pin_LfFd, GPIO_LOW);
20000e94:	34420200 	ori	v0,v0,0x200
20000e98:	8c450000 	lw	a1,0(v0)
20000e9c:	2404fff7 	li	a0,-9
20000ea0:	00a42024 	and	a0,a1,a0
20000ea4:	ac440000 	sw	a0,0(v0)
20000ea8:	8c440000 	lw	a0,0(v0)
20000eac:	00000000 	nop
20000eb0:	ac440000 	sw	a0,0(v0)
	}

	if((Left_motor_direction_G == Reverse && Left_motor_speed_G != 0	) || (Course_correction_Lf == True))
20000eb4:	24020002 	li	v0,2
20000eb8:	14620005 	bne	v1,v0,20000ed0 <visualsLf+0xd0>
20000ebc:	00000000 	nop
20000ec0:	978200b0 	lhu	v0,176(gp)
20000ec4:	00000000 	nop
20000ec8:	14400005 	bnez	v0,20000ee0 <visualsLf+0xe0>
20000ecc:	3c028000 	lui	v0,0x8000
20000ed0:	8f830074 	lw	v1,116(gp)
20000ed4:	24020001 	li	v0,1
20000ed8:	14620008 	bne	v1,v0,20000efc <visualsLf+0xfc>
20000edc:	3c028000 	lui	v0,0x8000
	{
		GPIO_Write(LED_Pin_LfBd, GPIO_HIGH);
20000ee0:	34420200 	ori	v0,v0,0x200
20000ee4:	8c430000 	lw	v1,0(v0)
20000ee8:	00000000 	nop
20000eec:	ac430000 	sw	v1,0(v0)
20000ef0:	8c430000 	lw	v1,0(v0)
20000ef4:	080003c5 	j	20000f14 <visualsLf+0x114>
20000ef8:	34630004 	ori	v1,v1,0x4
	}
	else
	{
		GPIO_Write(LED_Pin_LfBd, GPIO_LOW);
20000efc:	34420200 	ori	v0,v0,0x200
20000f00:	8c440000 	lw	a0,0(v0)
20000f04:	2403fffb 	li	v1,-5
20000f08:	00831824 	and	v1,a0,v1
20000f0c:	ac430000 	sw	v1,0(v0)
20000f10:	8c430000 	lw	v1,0(v0)
	}

//	Segment_Write(displayC, (Motor_Lf_Enc_Track & 0x000F) >> 0);
//	Segment_Write(displayD, (Motor_Lf_Enc_Track & 0x00F0) >> 4);

}
20000f14:	8fbf0014 	lw	ra,20(sp)
	{
		GPIO_Write(LED_Pin_LfBd, GPIO_HIGH);
	}
	else
	{
		GPIO_Write(LED_Pin_LfBd, GPIO_LOW);
20000f18:	ac430000 	sw	v1,0(v0)
	}

//	Segment_Write(displayC, (Motor_Lf_Enc_Track & 0x000F) >> 0);
//	Segment_Write(displayD, (Motor_Lf_Enc_Track & 0x00F0) >> 4);

}
20000f1c:	03e00008 	jr	ra
20000f20:	27bd0018 	addiu	sp,sp,24

20000f24 <Motor_Left_Update>:
 * Motor_Left controller operation.
 */
void Motor_Left_Update(void)
{

	if(System_Mode_G == Go)
20000f24:	8f830104 	lw	v1,260(gp)
20000f28:	24020002 	li	v0,2
20000f2c:	1462002b 	bne	v1,v0,20000fdc <Motor_Left_Update+0xb8>
20000f30:	24050001 	li	a1,1
	{
		/* Calculate the absolute value of encoder counts since previous update */
		Enc_Lf_Diff = (WheelCounts_Left_G - Enc_Lf_Old);
20000f34:	8f840088 	lw	a0,136(gp)
20000f38:	8f83015c 	lw	v1,348(gp)

		/* Encoder counting */
		if(movement_G == Fd || movement_G == Rt)
20000f3c:	8f8200ec 	lw	v0,236(gp)
{

	if(System_Mode_G == Go)
	{
		/* Calculate the absolute value of encoder counts since previous update */
		Enc_Lf_Diff = (WheelCounts_Left_G - Enc_Lf_Old);
20000f40:	00831823 	subu	v1,a0,v1

		/* Encoder counting */
		if(movement_G == Fd || movement_G == Rt)
20000f44:	10450004 	beq	v0,a1,20000f58 <Motor_Left_Update+0x34>
20000f48:	af830158 	sw	v1,344(gp)
20000f4c:	24050004 	li	a1,4
20000f50:	14450004 	bne	v0,a1,20000f64 <Motor_Left_Update+0x40>
20000f54:	2445fffe 	addiu	a1,v0,-2
		{
			Motor_Lf_Enc_Track += Enc_Lf_Diff;
20000f58:	8f850040 	lw	a1,64(gp)
20000f5c:	080003df 	j	20000f7c <Motor_Left_Update+0x58>
20000f60:	00a31821 	addu	v1,a1,v1
		}
		else if(movement_G == Bd || movement_G == Lf)
20000f64:	2ca50002 	sltiu	a1,a1,2
20000f68:	10a00005 	beqz	a1,20000f80 <Motor_Left_Update+0x5c>
20000f6c:	00000000 	nop
		{
			Motor_Lf_Enc_Track -= Enc_Lf_Diff;
20000f70:	8f850040 	lw	a1,64(gp)
20000f74:	00000000 	nop
20000f78:	00a31823 	subu	v1,a1,v1
20000f7c:	af830040 	sw	v1,64(gp)
		}

		Enc_Lf_Old = WheelCounts_Left_G;

		/* Script reader */
		switch(movement_G)
20000f80:	2c430004 	sltiu	v1,v0,4
20000f84:	10600008 	beqz	v1,20000fa8 <Motor_Left_Update+0x84>
20000f88:	af84015c 	sw	a0,348(gp)
20000f8c:	2c430002 	sltiu	v1,v0,2
20000f90:	10600010 	beqz	v1,20000fd4 <Motor_Left_Update+0xb0>
20000f94:	24030001 	li	v1,1
20000f98:	14430011 	bne	v0,v1,20000fe0 <Motor_Left_Update+0xbc>
20000f9c:	00000000 	nop
		{
		case Fd:
			/* Check the encoder tracker has reached the target count */
			Left_motor_direction_G = Forwards;
20000fa0:	080003ef 	j	20000fbc <Motor_Left_Update+0x98>
20000fa4:	af820094 	sw	v0,148(gp)
		}

		Enc_Lf_Old = WheelCounts_Left_G;

		/* Script reader */
		switch(movement_G)
20000fa8:	24030004 	li	v1,4
20000fac:	1443000c 	bne	v0,v1,20000fe0 <Motor_Left_Update+0xbc>
20000fb0:	24020001 	li	v0,1
			Left_motor_direction_G = Forwards;
			Left_motor_speed_G = CRAWL_SPEED;
			break;
		case Rt:
			/* Check the encoder tracker has reached the target count */
			Left_motor_direction_G = Forwards;
20000fb4:	080003f2 	j	20000fc8 <Motor_Left_Update+0xa4>
20000fb8:	af820094 	sw	v0,148(gp)
		switch(movement_G)
		{
		case Fd:
			/* Check the encoder tracker has reached the target count */
			Left_motor_direction_G = Forwards;
			Left_motor_speed_G = CRAWL_SPEED;
20000fbc:	080003f3 	j	20000fcc <Motor_Left_Update+0xa8>
20000fc0:	2402000c 	li	v0,12
			break;
		case Rt:
			/* Check the encoder tracker has reached the target count */
			Left_motor_direction_G = Forwards;
20000fc4:	af820094 	sw	v0,148(gp)
			Left_motor_speed_G = CRAWL_SPEED-2;
20000fc8:	2402000a 	li	v0,10

			break;
20000fcc:	080003fc 	j	20000ff0 <Motor_Left_Update+0xcc>
20000fd0:	a78200b0 	sh	v0,176(gp)
		case Bd:
		case Lf:
			Left_motor_direction_G = Reverse;
20000fd4:	080003f1 	j	20000fc4 <Motor_Left_Update+0xa0>
20000fd8:	24020002 	li	v0,2
			break;
		}
	}
	else
	{
		Left_motor_direction_G = Off;
20000fdc:	af800094 	sw	zero,148(gp)
		Left_motor_speed_G = 0;
20000fe0:	a78000b0 	sh	zero,176(gp)
		Motor_Lf_Enc_Track = 0;
20000fe4:	af800040 	sw	zero,64(gp)
		Enc_Lf_Diff = 0;
20000fe8:	af800158 	sw	zero,344(gp)
		Enc_Lf_Old = 0;
20000fec:	af80015c 	sw	zero,348(gp)
	}

	visualsLf();
20000ff0:	08000380 	j	20000e00 <visualsLf>
20000ff4:	00000000 	nop

20000ff8 <Motor_Left_Init>:
	/* Task initialisation */
	Left_motor_direction_G = Off;
	Left_motor_speed_G = 0;
	Motor_Lf_Enc_Track = 0;

	GPIO_Set_Direction(LED_Pin_LfFd, GPIO_OUTPUT);
20000ff8:	3c038000 	lui	v1,0x8000
20000ffc:	34620200 	ori	v0,v1,0x200
20001000:	8c440004 	lw	a0,4(v0)
20001004:	2405fff7 	li	a1,-9
20001008:	00852024 	and	a0,a0,a1
2000100c:	ac440004 	sw	a0,4(v0)
20001010:	8c440004 	lw	a0,4(v0)
	GPIO_Write(LED_Pin_LfFd, GPIO_LOW);
	GPIO_Set_Direction(LED_Pin_LfBd, GPIO_OUTPUT);
20001014:	2406fffb 	li	a2,-5
	/* Task initialisation */
	Left_motor_direction_G = Off;
	Left_motor_speed_G = 0;
	Motor_Lf_Enc_Track = 0;

	GPIO_Set_Direction(LED_Pin_LfFd, GPIO_OUTPUT);
20001018:	34840008 	ori	a0,a0,0x8
2000101c:	ac440004 	sw	a0,4(v0)
	GPIO_Write(LED_Pin_LfFd, GPIO_LOW);
20001020:	8c440000 	lw	a0,0(v0)
	GPIO_Set_Direction(LED_Pin_LfBd, GPIO_OUTPUT);
	GPIO_Write(LED_Pin_LfBd, GPIO_LOW);
	GPIO_Set_Direction(Left_SW, GPIO_INPUT);
20001024:	34630500 	ori	v1,v1,0x500
	Left_motor_direction_G = Off;
	Left_motor_speed_G = 0;
	Motor_Lf_Enc_Track = 0;

	GPIO_Set_Direction(LED_Pin_LfFd, GPIO_OUTPUT);
	GPIO_Write(LED_Pin_LfFd, GPIO_LOW);
20001028:	00852024 	and	a0,a0,a1
2000102c:	ac440000 	sw	a0,0(v0)
20001030:	8c470000 	lw	a3,0(v0)
	GPIO_Set_Direction(LED_Pin_LfBd, GPIO_OUTPUT);
	GPIO_Write(LED_Pin_LfBd, GPIO_LOW);
	GPIO_Set_Direction(Left_SW, GPIO_INPUT);

	Segment_Enable(displayC);
20001034:	8f84ffec 	lw	a0,-20(gp)
	Left_motor_direction_G = Off;
	Left_motor_speed_G = 0;
	Motor_Lf_Enc_Track = 0;

	GPIO_Set_Direction(LED_Pin_LfFd, GPIO_OUTPUT);
	GPIO_Write(LED_Pin_LfFd, GPIO_LOW);
20001038:	ac470000 	sw	a3,0(v0)
	GPIO_Set_Direction(LED_Pin_LfBd, GPIO_OUTPUT);
2000103c:	8c470004 	lw	a3,4(v0)
/**
 * Initialisation for the Motor_Left package.
 * This will be called from Tasks_Init by default.
 */
void Motor_Left_Init(void)
{
20001040:	27bdffe8 	addiu	sp,sp,-24
	Left_motor_speed_G = 0;
	Motor_Lf_Enc_Track = 0;

	GPIO_Set_Direction(LED_Pin_LfFd, GPIO_OUTPUT);
	GPIO_Write(LED_Pin_LfFd, GPIO_LOW);
	GPIO_Set_Direction(LED_Pin_LfBd, GPIO_OUTPUT);
20001044:	00e63824 	and	a3,a3,a2
20001048:	ac470004 	sw	a3,4(v0)
2000104c:	8c470004 	lw	a3,4(v0)
/**
 * Initialisation for the Motor_Left package.
 * This will be called from Tasks_Init by default.
 */
void Motor_Left_Init(void)
{
20001050:	afbf0014 	sw	ra,20(sp)
	Left_motor_speed_G = 0;
	Motor_Lf_Enc_Track = 0;

	GPIO_Set_Direction(LED_Pin_LfFd, GPIO_OUTPUT);
	GPIO_Write(LED_Pin_LfFd, GPIO_LOW);
	GPIO_Set_Direction(LED_Pin_LfBd, GPIO_OUTPUT);
20001054:	34e70004 	ori	a3,a3,0x4
20001058:	ac470004 	sw	a3,4(v0)
	GPIO_Write(LED_Pin_LfBd, GPIO_LOW);
2000105c:	8c470000 	lw	a3,0(v0)
void Motor_Left_Init(void)
{
	/* Task initialisation */
	Left_motor_direction_G = Off;
	Left_motor_speed_G = 0;
	Motor_Lf_Enc_Track = 0;
20001060:	af800040 	sw	zero,64(gp)

	GPIO_Set_Direction(LED_Pin_LfFd, GPIO_OUTPUT);
	GPIO_Write(LED_Pin_LfFd, GPIO_LOW);
	GPIO_Set_Direction(LED_Pin_LfBd, GPIO_OUTPUT);
	GPIO_Write(LED_Pin_LfBd, GPIO_LOW);
20001064:	00e63024 	and	a2,a3,a2
20001068:	ac460000 	sw	a2,0(v0)
2000106c:	8c460000 	lw	a2,0(v0)
 * This will be called from Tasks_Init by default.
 */
void Motor_Left_Init(void)
{
	/* Task initialisation */
	Left_motor_direction_G = Off;
20001070:	af800094 	sw	zero,148(gp)
	Motor_Lf_Enc_Track = 0;

	GPIO_Set_Direction(LED_Pin_LfFd, GPIO_OUTPUT);
	GPIO_Write(LED_Pin_LfFd, GPIO_LOW);
	GPIO_Set_Direction(LED_Pin_LfBd, GPIO_OUTPUT);
	GPIO_Write(LED_Pin_LfBd, GPIO_LOW);
20001074:	ac460000 	sw	a2,0(v0)
	GPIO_Set_Direction(Left_SW, GPIO_INPUT);
20001078:	8c620004 	lw	v0,4(v1)
 */
void Motor_Left_Init(void)
{
	/* Task initialisation */
	Left_motor_direction_G = Off;
	Left_motor_speed_G = 0;
2000107c:	a78000b0 	sh	zero,176(gp)

	GPIO_Set_Direction(LED_Pin_LfFd, GPIO_OUTPUT);
	GPIO_Write(LED_Pin_LfFd, GPIO_LOW);
	GPIO_Set_Direction(LED_Pin_LfBd, GPIO_OUTPUT);
	GPIO_Write(LED_Pin_LfBd, GPIO_LOW);
	GPIO_Set_Direction(Left_SW, GPIO_INPUT);
20001080:	00452824 	and	a1,v0,a1
20001084:	ac650004 	sw	a1,4(v1)
20001088:	8c620004 	lw	v0,4(v1)
2000108c:	00000000 	nop
20001090:	ac620004 	sw	v0,4(v1)

	Segment_Enable(displayC);
20001094:	0c000b71 	jal	20002dc4 <Segment_Enable>
20001098:	00000000 	nop
	Segment_Write(displayC, 0x0);
2000109c:	8f84ffec 	lw	a0,-20(gp)
200010a0:	0c000b44 	jal	20002d10 <Segment_Write>
200010a4:	00002821 	move	a1,zero
	Segment_Clear_Decimal(displayC);
200010a8:	8f84ffec 	lw	a0,-20(gp)
200010ac:	0c000af9 	jal	20002be4 <Segment_Clear_Decimal>
200010b0:	00000000 	nop
	Segment_Enable(displayD);
200010b4:	8f84fff0 	lw	a0,-16(gp)
200010b8:	0c000b71 	jal	20002dc4 <Segment_Enable>
200010bc:	00000000 	nop
	Segment_Write(displayD, 0x0);
200010c0:	8f84fff0 	lw	a0,-16(gp)
200010c4:	0c000b44 	jal	20002d10 <Segment_Write>
200010c8:	00002821 	move	a1,zero
	Segment_Clear_Decimal(displayD);
200010cc:	8f84fff0 	lw	a0,-16(gp)
}
200010d0:	8fbf0014 	lw	ra,20(sp)
	Segment_Enable(displayC);
	Segment_Write(displayC, 0x0);
	Segment_Clear_Decimal(displayC);
	Segment_Enable(displayD);
	Segment_Write(displayD, 0x0);
	Segment_Clear_Decimal(displayD);
200010d4:	08000af9 	j	20002be4 <Segment_Clear_Decimal>
200010d8:	27bd0018 	addiu	sp,sp,24

200010dc <spi_receive_CAN>:
	uint32_t Byte_counter, length;// displayID;

	PAD_ID = 0x0;

	/* Pull CS pin low - indicates start of transmission */
	GPIO_Write(CS_PIN, GPIO_LOW);
200010dc:	3c028000 	lui	v0,0x8000
200010e0:	34420600 	ori	v0,v0,0x600
200010e4:	8c460000 	lw	a2,0(v0)
200010e8:	2403ffbf 	li	v1,-65
200010ec:	00c31824 	and	v1,a2,v1
200010f0:	ac430000 	sw	v1,0(v0)
200010f4:	8c430000 	lw	v1,0(v0)
/**
 * Processes received CAN messages
 * @param buffer_ins The SPI buffer receive instruction.
 */
void spi_receive_CAN(uint32_t buffer_ins, Receive_Buffers * buffer)
{
200010f8:	27bdffe0 	addiu	sp,sp,-32

	PAD_ID = 0x0;

	/* Pull CS pin low - indicates start of transmission */
	GPIO_Write(CS_PIN, GPIO_LOW);
	SPI_Swap(SPI0, buffer_ins);
200010fc:	308400ff 	andi	a0,a0,0xff
	uint32_t Byte_counter, length;// displayID;

	PAD_ID = 0x0;

	/* Pull CS pin low - indicates start of transmission */
	GPIO_Write(CS_PIN, GPIO_LOW);
20001100:	ac430000 	sw	v1,0(v0)
/**
 * Processes received CAN messages
 * @param buffer_ins The SPI buffer receive instruction.
 */
void spi_receive_CAN(uint32_t buffer_ins, Receive_Buffers * buffer)
{
20001104:	afb20018 	sw	s2,24(sp)
20001108:	00a09021 	move	s2,a1

	PAD_ID = 0x0;

	/* Pull CS pin low - indicates start of transmission */
	GPIO_Write(CS_PIN, GPIO_LOW);
	SPI_Swap(SPI0, buffer_ins);
2000110c:	00802821 	move	a1,a0
20001110:	00002021 	move	a0,zero
/**
 * Processes received CAN messages
 * @param buffer_ins The SPI buffer receive instruction.
 */
void spi_receive_CAN(uint32_t buffer_ins, Receive_Buffers * buffer)
{
20001114:	afbf001c 	sw	ra,28(sp)
20001118:	afb10014 	sw	s1,20(sp)
2000111c:	afb00010 	sw	s0,16(sp)

	PAD_ID = 0x0;

	/* Pull CS pin low - indicates start of transmission */
	GPIO_Write(CS_PIN, GPIO_LOW);
	SPI_Swap(SPI0, buffer_ins);
20001120:	0c000ae5 	jal	20002b94 <SPI_Swap>
20001124:	af800184 	sw	zero,388(gp)

	/* Burn 5 Bytes: EXT_ID and Length */
	SPI_Swap(SPI0, 0xFF);
20001128:	00002021 	move	a0,zero
2000112c:	0c000ae5 	jal	20002b94 <SPI_Swap>
20001130:	240500ff 	li	a1,255
	SPI_Swap(SPI0, 0xFF);
20001134:	00002021 	move	a0,zero
20001138:	0c000ae5 	jal	20002b94 <SPI_Swap>
2000113c:	240500ff 	li	a1,255
	SPI_Swap(SPI0, 0xFF);
20001140:	00002021 	move	a0,zero
20001144:	0c000ae5 	jal	20002b94 <SPI_Swap>
20001148:	240500ff 	li	a1,255
	SPI_Swap(SPI0, 0xFF);
2000114c:	00002021 	move	a0,zero
20001150:	0c000ae5 	jal	20002b94 <SPI_Swap>
20001154:	240500ff 	li	a1,255
	SPI_Swap(SPI0, 0xFF);
20001158:	00002021 	move	a0,zero
2000115c:	0c000ae5 	jal	20002b94 <SPI_Swap>
20001160:	240500ff 	li	a1,255
20001164:	00008021 	move	s0,zero

	/* Known length */
	length = 8;

	/* Extract the CAN data and insert into the Receive Buffer */
	for (Byte_counter = 0; Byte_counter < length; Byte_counter++)
20001168:	24110008 	li	s1,8
	{
		buffer->CAN_Data[Byte_counter] = SPI_Swap(SPI0, 0xFF);
2000116c:	00002021 	move	a0,zero
20001170:	0c000ae5 	jal	20002b94 <SPI_Swap>
20001174:	240500ff 	li	a1,255
20001178:	02501821 	addu	v1,s2,s0

	/* Known length */
	length = 8;

	/* Extract the CAN data and insert into the Receive Buffer */
	for (Byte_counter = 0; Byte_counter < length; Byte_counter++)
2000117c:	26100001 	addiu	s0,s0,1
20001180:	1611fffa 	bne	s0,s1,2000116c <spi_receive_CAN+0x90>
20001184:	a0620008 	sb	v0,8(v1)
	{
		buffer->CAN_Data[Byte_counter] = SPI_Swap(SPI0, 0xFF);
	}

	GPIO_Write(CS_PIN, GPIO_HIGH);
20001188:	3c028000 	lui	v0,0x8000
2000118c:	34420600 	ori	v0,v0,0x600
20001190:	8c430000 	lw	v1,0(v0)
}
20001194:	8fbf001c 	lw	ra,28(sp)
	for (Byte_counter = 0; Byte_counter < length; Byte_counter++)
	{
		buffer->CAN_Data[Byte_counter] = SPI_Swap(SPI0, 0xFF);
	}

	GPIO_Write(CS_PIN, GPIO_HIGH);
20001198:	ac430000 	sw	v1,0(v0)
2000119c:	8c430000 	lw	v1,0(v0)
}
200011a0:	8fb20018 	lw	s2,24(sp)
	for (Byte_counter = 0; Byte_counter < length; Byte_counter++)
	{
		buffer->CAN_Data[Byte_counter] = SPI_Swap(SPI0, 0xFF);
	}

	GPIO_Write(CS_PIN, GPIO_HIGH);
200011a4:	34630040 	ori	v1,v1,0x40
}
200011a8:	8fb10014 	lw	s1,20(sp)
200011ac:	8fb00010 	lw	s0,16(sp)
	for (Byte_counter = 0; Byte_counter < length; Byte_counter++)
	{
		buffer->CAN_Data[Byte_counter] = SPI_Swap(SPI0, 0xFF);
	}

	GPIO_Write(CS_PIN, GPIO_HIGH);
200011b0:	ac430000 	sw	v1,0(v0)
}
200011b4:	03e00008 	jr	ra
200011b8:	27bd0020 	addiu	sp,sp,32

200011bc <spi_buffer_CAN>:

	/* Separate Extended ID portion */
	EID = MaskedID & 0x3FFFF;

	/* Combine Standard ID, 3 padding bits and Extended ID */
	PAD_ID = ((SID | 0x80000) | EID);
200011bc:	3c020003 	lui	v0,0x3

	/* Mask 4 bytes of CAN ID */
	MaskedID = CAN_ID & 0xFFFFFFFF;

	/* Separate Standard ID portion and shift for extra 3 bits */
	SID = MaskedID & 0x1FFC0000;
200011c0:	3c031ffc 	lui	v1,0x1ffc

	/* Separate Extended ID portion */
	EID = MaskedID & 0x3FFFF;

	/* Combine Standard ID, 3 padding bits and Extended ID */
	PAD_ID = ((SID | 0x80000) | EID);
200011c4:	3442ffff 	ori	v0,v0,0xffff
200011c8:	00821024 	and	v0,a0,v0

	/* Mask 4 bytes of CAN ID */
	MaskedID = CAN_ID & 0xFFFFFFFF;

	/* Separate Standard ID portion and shift for extra 3 bits */
	SID = MaskedID & 0x1FFC0000;
200011cc:	00832024 	and	a0,a0,v1

	/* Separate Extended ID portion */
	EID = MaskedID & 0x3FFFF;

	/* Combine Standard ID, 3 padding bits and Extended ID */
	PAD_ID = ((SID | 0x80000) | EID);
200011d0:	3c030008 	lui	v1,0x8
 * @param EXT_ID Transmission ID for the CAN message.
 * @param length The size of the CAN data message.
 * @param Data_array The CAN data.
 */
void spi_buffer_CAN(uint32_t EXT_ID, uint8_t length, uint8_t Data_array[])
{
200011d4:	27bdffd8 	addiu	sp,sp,-40

	/* Separate Extended ID portion */
	EID = MaskedID & 0x3FFFF;

	/* Combine Standard ID, 3 padding bits and Extended ID */
	PAD_ID = ((SID | 0x80000) | EID);
200011d8:	00431025 	or	v0,v0,v1
200011dc:	000420c0 	sll	a0,a0,0x3
200011e0:	00442025 	or	a0,v0,a0
 * @param EXT_ID Transmission ID for the CAN message.
 * @param length The size of the CAN data message.
 * @param Data_array The CAN data.
 */
void spi_buffer_CAN(uint32_t EXT_ID, uint8_t length, uint8_t Data_array[])
{
200011e4:	afb10018 	sw	s1,24(sp)
200011e8:	30b100ff 	andi	s1,a1,0xff
200011ec:	afb00014 	sw	s0,20(sp)
	PAD_ID = ((SID | 0x80000) | EID);

	/* Write to byte array */
	for(Byte = 3; Byte >= 0; Byte--)
	{
		ID_Array[Byte] = (PAD_ID & 0xFF);
200011f0:	00041e02 	srl	v1,a0,0x18
		PAD_ID >>= 8;
200011f4:	00043a02 	srl	a3,a0,0x8
200011f8:	00042c02 	srl	a1,a0,0x10
	}

	/* add data length to byte array */
	ID_Array[4] = (DL & 0x0F);
200011fc:	3222000f 	andi	v0,s1,0xf
20001200:	27900168 	addiu	s0,gp,360
 * @param EXT_ID Transmission ID for the CAN message.
 * @param length The size of the CAN data message.
 * @param Data_array The CAN data.
 */
void spi_buffer_CAN(uint32_t EXT_ID, uint8_t length, uint8_t Data_array[])
{
20001204:	afb30020 	sw	s3,32(sp)
20001208:	afb2001c 	sw	s2,28(sp)
2000120c:	afbf0024 	sw	ra,36(sp)
	PAD_ID = ((SID | 0x80000) | EID);

	/* Write to byte array */
	for(Byte = 3; Byte >= 0; Byte--)
	{
		ID_Array[Byte] = (PAD_ID & 0xFF);
20001210:	a387016a 	sb	a3,362(gp)
20001214:	a3850169 	sb	a1,361(gp)
20001218:	a3830168 	sb	v1,360(gp)
		PAD_ID >>= 8;
	}

	/* add data length to byte array */
	ID_Array[4] = (DL & 0x0F);
2000121c:	a382016c 	sb	v0,364(gp)
 * @param EXT_ID Transmission ID for the CAN message.
 * @param length The size of the CAN data message.
 * @param Data_array The CAN data.
 */
void spi_buffer_CAN(uint32_t EXT_ID, uint8_t length, uint8_t Data_array[])
{
20001220:	00c09021 	move	s2,a2
	PAD_ID = ((SID | 0x80000) | EID);

	/* Write to byte array */
	for(Byte = 3; Byte >= 0; Byte--)
	{
		ID_Array[Byte] = (PAD_ID & 0xFF);
20001224:	a384016b 	sb	a0,363(gp)
 * Send CAN message into SPI buffer
 * @param EXT_ID Transmission ID for the CAN message.
 * @param length The size of the CAN data message.
 * @param Data_array The CAN data.
 */
void spi_buffer_CAN(uint32_t EXT_ID, uint8_t length, uint8_t Data_array[])
20001228:	26130005 	addiu	s3,s0,5
	build_EXT_ID_bytes(EXT_ID, EXT_ID_Bytes, length);

	/* Send padded CAN ID */
	for (Byte_counter = 0; Byte_counter < 5; Byte_counter++)
	{
		SPI_Swap(SPI0, EXT_ID_Bytes[Byte_counter]);
2000122c:	92050000 	lbu	a1,0(s0)
20001230:	00002021 	move	a0,zero
20001234:	0c000ae5 	jal	20002b94 <SPI_Swap>
20001238:	26100001 	addiu	s0,s0,1

	/* Pad ID with LOAD_TX0_INS info (see MCP2515 datasheet) */
	build_EXT_ID_bytes(EXT_ID, EXT_ID_Bytes, length);

	/* Send padded CAN ID */
	for (Byte_counter = 0; Byte_counter < 5; Byte_counter++)
2000123c:	1613fffb 	bne	s0,s3,2000122c <spi_buffer_CAN+0x70>
20001240:	00000000 	nop
20001244:	08000496 	j	20001258 <spi_buffer_CAN+0x9c>
20001248:	00008021 	move	s0,zero
	}

	/* Send CAN Data */
	for (Byte_counter = 0; Byte_counter < length; Byte_counter++)
	{
		SPI_Swap(SPI0, Data_array[Byte_counter]);
2000124c:	90650000 	lbu	a1,0(v1)
20001250:	0c000ae5 	jal	20002b94 <SPI_Swap>
20001254:	26100001 	addiu	s0,s0,1
	{
		SPI_Swap(SPI0, EXT_ID_Bytes[Byte_counter]);
	}

	/* Send CAN Data */
	for (Byte_counter = 0; Byte_counter < length; Byte_counter++)
20001258:	0211102b 	sltu	v0,s0,s1
	{
		SPI_Swap(SPI0, Data_array[Byte_counter]);
2000125c:	02501821 	addu	v1,s2,s0
	{
		SPI_Swap(SPI0, EXT_ID_Bytes[Byte_counter]);
	}

	/* Send CAN Data */
	for (Byte_counter = 0; Byte_counter < length; Byte_counter++)
20001260:	1440fffa 	bnez	v0,2000124c <spi_buffer_CAN+0x90>
20001264:	00002021 	move	a0,zero
	{
		SPI_Swap(SPI0, Data_array[Byte_counter]);
	}
}
20001268:	8fbf0024 	lw	ra,36(sp)
2000126c:	8fb30020 	lw	s3,32(sp)
20001270:	8fb2001c 	lw	s2,28(sp)
20001274:	8fb10018 	lw	s1,24(sp)
20001278:	8fb00014 	lw	s0,20(sp)
2000127c:	03e00008 	jr	ra
20001280:	27bd0028 	addiu	sp,sp,40

20001284 <Message_Sender_Update>:
 */
void Message_Sender_Update(void)
{

	/* First Update ensures the CONFIG values are correct */
	if(init == False)
20001284:	8f820170 	lw	v0,368(gp)

/**
 * Specifies messages to send by SPI
 */
void Message_Sender_Update(void)
{
20001288:	27bdffe0 	addiu	sp,sp,-32
2000128c:	afbf001c 	sw	ra,28(sp)
20001290:	afb10018 	sw	s1,24(sp)

	/* First Update ensures the CONFIG values are correct */
	if(init == False)
20001294:	1440011e 	bnez	v0,20001710 <Message_Sender_Update+0x48c>
20001298:	afb00014 	sw	s0,20(sp)
	{
		/* Soft Reset */
		GPIO_Write(CS_PIN, GPIO_LOW);
2000129c:	3c108000 	lui	s0,0x8000
200012a0:	36100600 	ori	s0,s0,0x600
200012a4:	8e020000 	lw	v0,0(s0)
200012a8:	2411ffbf 	li	s1,-65
200012ac:	00511024 	and	v0,v0,s1
200012b0:	ae020000 	sw	v0,0(s0)
200012b4:	8e020000 	lw	v0,0(s0)
		SPI_Swap(SPI0, 0xC0);
200012b8:	00002021 	move	a0,zero
200012bc:	240500c0 	li	a1,192

	/* First Update ensures the CONFIG values are correct */
	if(init == False)
	{
		/* Soft Reset */
		GPIO_Write(CS_PIN, GPIO_LOW);
200012c0:	ae020000 	sw	v0,0(s0)
		SPI_Swap(SPI0, 0xC0);
200012c4:	0c000ae5 	jal	20002b94 <SPI_Swap>
200012c8:	00000000 	nop
		GPIO_Write(CS_PIN, GPIO_HIGH);
200012cc:	8e020000 	lw	v0,0(s0)

		/* Set into CONFIG mode */
		GPIO_Write(CS_PIN, GPIO_LOW);
		SPI_Swap(SPI0, 0x02);
200012d0:	00002021 	move	a0,zero
	if(init == False)
	{
		/* Soft Reset */
		GPIO_Write(CS_PIN, GPIO_LOW);
		SPI_Swap(SPI0, 0xC0);
		GPIO_Write(CS_PIN, GPIO_HIGH);
200012d4:	ae020000 	sw	v0,0(s0)
200012d8:	8e020000 	lw	v0,0(s0)

		/* Set into CONFIG mode */
		GPIO_Write(CS_PIN, GPIO_LOW);
		SPI_Swap(SPI0, 0x02);
200012dc:	24050002 	li	a1,2
	if(init == False)
	{
		/* Soft Reset */
		GPIO_Write(CS_PIN, GPIO_LOW);
		SPI_Swap(SPI0, 0xC0);
		GPIO_Write(CS_PIN, GPIO_HIGH);
200012e0:	34420040 	ori	v0,v0,0x40
200012e4:	ae020000 	sw	v0,0(s0)

		/* Set into CONFIG mode */
		GPIO_Write(CS_PIN, GPIO_LOW);
200012e8:	8e020000 	lw	v0,0(s0)
200012ec:	00000000 	nop
200012f0:	00511024 	and	v0,v0,s1
200012f4:	ae020000 	sw	v0,0(s0)
200012f8:	8e020000 	lw	v0,0(s0)
200012fc:	00000000 	nop
20001300:	ae020000 	sw	v0,0(s0)
		SPI_Swap(SPI0, 0x02);
20001304:	0c000ae5 	jal	20002b94 <SPI_Swap>
20001308:	00000000 	nop
		SPI_Swap(SPI0, 0x0F);
2000130c:	00002021 	move	a0,zero
20001310:	0c000ae5 	jal	20002b94 <SPI_Swap>
20001314:	2405000f 	li	a1,15
		SPI_Swap(SPI0, 0x80);
20001318:	00002021 	move	a0,zero
2000131c:	0c000ae5 	jal	20002b94 <SPI_Swap>
20001320:	24050080 	li	a1,128
		GPIO_Write(CS_PIN, GPIO_HIGH);
20001324:	8e020000 	lw	v0,0(s0)

		/* Verify CONFIG mode */
		GPIO_Write(CS_PIN, GPIO_LOW);
		SPI_Swap(SPI0, 0x03);
20001328:	00002021 	move	a0,zero
		/* Set into CONFIG mode */
		GPIO_Write(CS_PIN, GPIO_LOW);
		SPI_Swap(SPI0, 0x02);
		SPI_Swap(SPI0, 0x0F);
		SPI_Swap(SPI0, 0x80);
		GPIO_Write(CS_PIN, GPIO_HIGH);
2000132c:	ae020000 	sw	v0,0(s0)
20001330:	8e020000 	lw	v0,0(s0)

		/* Verify CONFIG mode */
		GPIO_Write(CS_PIN, GPIO_LOW);
		SPI_Swap(SPI0, 0x03);
20001334:	24050003 	li	a1,3
		/* Set into CONFIG mode */
		GPIO_Write(CS_PIN, GPIO_LOW);
		SPI_Swap(SPI0, 0x02);
		SPI_Swap(SPI0, 0x0F);
		SPI_Swap(SPI0, 0x80);
		GPIO_Write(CS_PIN, GPIO_HIGH);
20001338:	34420040 	ori	v0,v0,0x40
2000133c:	ae020000 	sw	v0,0(s0)

		/* Verify CONFIG mode */
		GPIO_Write(CS_PIN, GPIO_LOW);
20001340:	8e020000 	lw	v0,0(s0)
20001344:	00000000 	nop
20001348:	00511024 	and	v0,v0,s1
2000134c:	ae020000 	sw	v0,0(s0)
20001350:	8e020000 	lw	v0,0(s0)
20001354:	00000000 	nop
20001358:	ae020000 	sw	v0,0(s0)
		SPI_Swap(SPI0, 0x03);
2000135c:	0c000ae5 	jal	20002b94 <SPI_Swap>
20001360:	00000000 	nop
		SPI_Swap(SPI0, 0x0E);
20001364:	00002021 	move	a0,zero
20001368:	0c000ae5 	jal	20002b94 <SPI_Swap>
2000136c:	2405000e 	li	a1,14
		GPIO_Write(CS_PIN, GPIO_HIGH);
20001370:	8e020000 	lw	v0,0(s0)

		/* Set values in the CONFIG registers for 250 kbps CAN */
		GPIO_Write(CS_PIN, GPIO_LOW);
		SPI_Swap(SPI0, 0x02);
20001374:	00002021 	move	a0,zero

		/* Verify CONFIG mode */
		GPIO_Write(CS_PIN, GPIO_LOW);
		SPI_Swap(SPI0, 0x03);
		SPI_Swap(SPI0, 0x0E);
		GPIO_Write(CS_PIN, GPIO_HIGH);
20001378:	ae020000 	sw	v0,0(s0)
2000137c:	8e020000 	lw	v0,0(s0)

		/* Set values in the CONFIG registers for 250 kbps CAN */
		GPIO_Write(CS_PIN, GPIO_LOW);
		SPI_Swap(SPI0, 0x02);
20001380:	24050002 	li	a1,2

		/* Verify CONFIG mode */
		GPIO_Write(CS_PIN, GPIO_LOW);
		SPI_Swap(SPI0, 0x03);
		SPI_Swap(SPI0, 0x0E);
		GPIO_Write(CS_PIN, GPIO_HIGH);
20001384:	34420040 	ori	v0,v0,0x40
20001388:	ae020000 	sw	v0,0(s0)

		/* Set values in the CONFIG registers for 250 kbps CAN */
		GPIO_Write(CS_PIN, GPIO_LOW);
2000138c:	8e020000 	lw	v0,0(s0)
20001390:	00000000 	nop
20001394:	00511024 	and	v0,v0,s1
20001398:	ae020000 	sw	v0,0(s0)
2000139c:	8e020000 	lw	v0,0(s0)
200013a0:	00000000 	nop
200013a4:	ae020000 	sw	v0,0(s0)
		SPI_Swap(SPI0, 0x02);
200013a8:	0c000ae5 	jal	20002b94 <SPI_Swap>
200013ac:	00000000 	nop
		SPI_Swap(SPI0, 0x28);
200013b0:	00002021 	move	a0,zero
200013b4:	0c000ae5 	jal	20002b94 <SPI_Swap>
200013b8:	24050028 	li	a1,40
		SPI_Swap(SPI0, 0x02);
200013bc:	00002021 	move	a0,zero
200013c0:	0c000ae5 	jal	20002b94 <SPI_Swap>
200013c4:	24050002 	li	a1,2
		SPI_Swap(SPI0, 0x90);
200013c8:	00002021 	move	a0,zero
200013cc:	0c000ae5 	jal	20002b94 <SPI_Swap>
200013d0:	24050090 	li	a1,144
		SPI_Swap(SPI0, 0x03);
200013d4:	00002021 	move	a0,zero
200013d8:	0c000ae5 	jal	20002b94 <SPI_Swap>
200013dc:	24050003 	li	a1,3
		SPI_Swap(SPI0, 0x00);
200013e0:	00002021 	move	a0,zero
200013e4:	0c000ae5 	jal	20002b94 <SPI_Swap>
200013e8:	00002821 	move	a1,zero
		GPIO_Write(CS_PIN, GPIO_HIGH);
200013ec:	8e020000 	lw	v0,0(s0)

		/* Verify set values */
		GPIO_Write(CS_PIN, GPIO_LOW);
		SPI_Swap(SPI0, 0x03);
200013f0:	00002021 	move	a0,zero
		SPI_Swap(SPI0, 0x28);
		SPI_Swap(SPI0, 0x02);
		SPI_Swap(SPI0, 0x90);
		SPI_Swap(SPI0, 0x03);
		SPI_Swap(SPI0, 0x00);
		GPIO_Write(CS_PIN, GPIO_HIGH);
200013f4:	ae020000 	sw	v0,0(s0)
200013f8:	8e020000 	lw	v0,0(s0)

		/* Verify set values */
		GPIO_Write(CS_PIN, GPIO_LOW);
		SPI_Swap(SPI0, 0x03);
200013fc:	24050003 	li	a1,3
		SPI_Swap(SPI0, 0x28);
		SPI_Swap(SPI0, 0x02);
		SPI_Swap(SPI0, 0x90);
		SPI_Swap(SPI0, 0x03);
		SPI_Swap(SPI0, 0x00);
		GPIO_Write(CS_PIN, GPIO_HIGH);
20001400:	34420040 	ori	v0,v0,0x40
20001404:	ae020000 	sw	v0,0(s0)

		/* Verify set values */
		GPIO_Write(CS_PIN, GPIO_LOW);
20001408:	8e020000 	lw	v0,0(s0)
2000140c:	00000000 	nop
20001410:	00511024 	and	v0,v0,s1
20001414:	ae020000 	sw	v0,0(s0)
20001418:	8e020000 	lw	v0,0(s0)
2000141c:	00000000 	nop
20001420:	ae020000 	sw	v0,0(s0)
		SPI_Swap(SPI0, 0x03);
20001424:	0c000ae5 	jal	20002b94 <SPI_Swap>
20001428:	00000000 	nop
		SPI_Swap(SPI0, 0x2A);
2000142c:	00002021 	move	a0,zero
20001430:	0c000ae5 	jal	20002b94 <SPI_Swap>
20001434:	2405002a 	li	a1,42
		speedPin = SPI_Swap(SPI0, 0xFF);
20001438:	00002021 	move	a0,zero
2000143c:	0c000ae5 	jal	20002b94 <SPI_Swap>
20001440:	240500ff 	li	a1,255
		GPIO_Write(CS_PIN, GPIO_HIGH);
20001444:	8e030000 	lw	v1,0(s0)

		/* BFPCTRL register cleared */
		GPIO_Write(CS_PIN, GPIO_LOW);
		SPI_Swap(SPI0, 0x02);
20001448:	00002021 	move	a0,zero
		/* Verify set values */
		GPIO_Write(CS_PIN, GPIO_LOW);
		SPI_Swap(SPI0, 0x03);
		SPI_Swap(SPI0, 0x2A);
		speedPin = SPI_Swap(SPI0, 0xFF);
		GPIO_Write(CS_PIN, GPIO_HIGH);
2000144c:	ae030000 	sw	v1,0(s0)
20001450:	8e030000 	lw	v1,0(s0)

		/* BFPCTRL register cleared */
		GPIO_Write(CS_PIN, GPIO_LOW);
		SPI_Swap(SPI0, 0x02);
20001454:	24050002 	li	a1,2
		/* Verify set values */
		GPIO_Write(CS_PIN, GPIO_LOW);
		SPI_Swap(SPI0, 0x03);
		SPI_Swap(SPI0, 0x2A);
		speedPin = SPI_Swap(SPI0, 0xFF);
		GPIO_Write(CS_PIN, GPIO_HIGH);
20001458:	34630040 	ori	v1,v1,0x40
2000145c:	ae030000 	sw	v1,0(s0)

		/* BFPCTRL register cleared */
		GPIO_Write(CS_PIN, GPIO_LOW);
20001460:	8e030000 	lw	v1,0(s0)

		/* Verify set values */
		GPIO_Write(CS_PIN, GPIO_LOW);
		SPI_Swap(SPI0, 0x03);
		SPI_Swap(SPI0, 0x2A);
		speedPin = SPI_Swap(SPI0, 0xFF);
20001464:	a382016d 	sb	v0,365(gp)
		GPIO_Write(CS_PIN, GPIO_HIGH);

		/* BFPCTRL register cleared */
		GPIO_Write(CS_PIN, GPIO_LOW);
20001468:	00711824 	and	v1,v1,s1
2000146c:	ae030000 	sw	v1,0(s0)
20001470:	8e020000 	lw	v0,0(s0)
20001474:	00000000 	nop
20001478:	ae020000 	sw	v0,0(s0)
		SPI_Swap(SPI0, 0x02);
2000147c:	0c000ae5 	jal	20002b94 <SPI_Swap>
20001480:	00000000 	nop
		SPI_Swap(SPI0, 0x0C);
20001484:	00002021 	move	a0,zero
20001488:	0c000ae5 	jal	20002b94 <SPI_Swap>
2000148c:	2405000c 	li	a1,12
		SPI_Swap(SPI0, 0x00);
20001490:	00002021 	move	a0,zero
20001494:	0c000ae5 	jal	20002b94 <SPI_Swap>
20001498:	00002821 	move	a1,zero
		GPIO_Write(CS_PIN, GPIO_HIGH);
2000149c:	8e020000 	lw	v0,0(s0)

		/* TXRTSCTRL register cleared */
		GPIO_Write(CS_PIN, GPIO_LOW);
		SPI_Swap(SPI0, 0x02);
200014a0:	00002021 	move	a0,zero
		/* BFPCTRL register cleared */
		GPIO_Write(CS_PIN, GPIO_LOW);
		SPI_Swap(SPI0, 0x02);
		SPI_Swap(SPI0, 0x0C);
		SPI_Swap(SPI0, 0x00);
		GPIO_Write(CS_PIN, GPIO_HIGH);
200014a4:	ae020000 	sw	v0,0(s0)
200014a8:	8e020000 	lw	v0,0(s0)

		/* TXRTSCTRL register cleared */
		GPIO_Write(CS_PIN, GPIO_LOW);
		SPI_Swap(SPI0, 0x02);
200014ac:	24050002 	li	a1,2
		/* BFPCTRL register cleared */
		GPIO_Write(CS_PIN, GPIO_LOW);
		SPI_Swap(SPI0, 0x02);
		SPI_Swap(SPI0, 0x0C);
		SPI_Swap(SPI0, 0x00);
		GPIO_Write(CS_PIN, GPIO_HIGH);
200014b0:	34420040 	ori	v0,v0,0x40
200014b4:	ae020000 	sw	v0,0(s0)

		/* TXRTSCTRL register cleared */
		GPIO_Write(CS_PIN, GPIO_LOW);
200014b8:	8e020000 	lw	v0,0(s0)
200014bc:	00000000 	nop
200014c0:	00511024 	and	v0,v0,s1
200014c4:	ae020000 	sw	v0,0(s0)
200014c8:	8e020000 	lw	v0,0(s0)
200014cc:	00000000 	nop
200014d0:	ae020000 	sw	v0,0(s0)
		SPI_Swap(SPI0, 0x02);
200014d4:	0c000ae5 	jal	20002b94 <SPI_Swap>
200014d8:	00000000 	nop
		SPI_Swap(SPI0, 0x0D);
200014dc:	00002021 	move	a0,zero
200014e0:	0c000ae5 	jal	20002b94 <SPI_Swap>
200014e4:	2405000d 	li	a1,13
		SPI_Swap(SPI0, 0x00);
200014e8:	00002021 	move	a0,zero
200014ec:	0c000ae5 	jal	20002b94 <SPI_Swap>
200014f0:	00002821 	move	a1,zero
		GPIO_Write(CS_PIN, GPIO_HIGH);
200014f4:	8e020000 	lw	v0,0(s0)

		/* RXB0CTRL */
		GPIO_Write(CS_PIN, GPIO_LOW);
		SPI_Swap(SPI0, 0x02);
200014f8:	00002021 	move	a0,zero
		/* TXRTSCTRL register cleared */
		GPIO_Write(CS_PIN, GPIO_LOW);
		SPI_Swap(SPI0, 0x02);
		SPI_Swap(SPI0, 0x0D);
		SPI_Swap(SPI0, 0x00);
		GPIO_Write(CS_PIN, GPIO_HIGH);
200014fc:	ae020000 	sw	v0,0(s0)
20001500:	8e020000 	lw	v0,0(s0)

		/* RXB0CTRL */
		GPIO_Write(CS_PIN, GPIO_LOW);
		SPI_Swap(SPI0, 0x02);
20001504:	24050002 	li	a1,2
		/* TXRTSCTRL register cleared */
		GPIO_Write(CS_PIN, GPIO_LOW);
		SPI_Swap(SPI0, 0x02);
		SPI_Swap(SPI0, 0x0D);
		SPI_Swap(SPI0, 0x00);
		GPIO_Write(CS_PIN, GPIO_HIGH);
20001508:	34420040 	ori	v0,v0,0x40
2000150c:	ae020000 	sw	v0,0(s0)

		/* RXB0CTRL */
		GPIO_Write(CS_PIN, GPIO_LOW);
20001510:	8e020000 	lw	v0,0(s0)
20001514:	00000000 	nop
20001518:	00511024 	and	v0,v0,s1
2000151c:	ae020000 	sw	v0,0(s0)
20001520:	8e020000 	lw	v0,0(s0)
20001524:	00000000 	nop
20001528:	ae020000 	sw	v0,0(s0)
		SPI_Swap(SPI0, 0x02);
2000152c:	0c000ae5 	jal	20002b94 <SPI_Swap>
20001530:	00000000 	nop
		SPI_Swap(SPI0, 0x60);
20001534:	00002021 	move	a0,zero
20001538:	0c000ae5 	jal	20002b94 <SPI_Swap>
2000153c:	24050060 	li	a1,96
		SPI_Swap(SPI0, 0x60);
20001540:	00002021 	move	a0,zero
20001544:	0c000ae5 	jal	20002b94 <SPI_Swap>
20001548:	24050060 	li	a1,96
		GPIO_Write(CS_PIN, GPIO_HIGH);
2000154c:	8e020000 	lw	v0,0(s0)

		/* RXB1CTRL */
		GPIO_Write(CS_PIN, GPIO_LOW);
		SPI_Swap(SPI0, 0x02);
20001550:	00002021 	move	a0,zero
		/* RXB0CTRL */
		GPIO_Write(CS_PIN, GPIO_LOW);
		SPI_Swap(SPI0, 0x02);
		SPI_Swap(SPI0, 0x60);
		SPI_Swap(SPI0, 0x60);
		GPIO_Write(CS_PIN, GPIO_HIGH);
20001554:	ae020000 	sw	v0,0(s0)
20001558:	8e020000 	lw	v0,0(s0)

		/* RXB1CTRL */
		GPIO_Write(CS_PIN, GPIO_LOW);
		SPI_Swap(SPI0, 0x02);
2000155c:	24050002 	li	a1,2
		/* RXB0CTRL */
		GPIO_Write(CS_PIN, GPIO_LOW);
		SPI_Swap(SPI0, 0x02);
		SPI_Swap(SPI0, 0x60);
		SPI_Swap(SPI0, 0x60);
		GPIO_Write(CS_PIN, GPIO_HIGH);
20001560:	34420040 	ori	v0,v0,0x40
20001564:	ae020000 	sw	v0,0(s0)

		/* RXB1CTRL */
		GPIO_Write(CS_PIN, GPIO_LOW);
20001568:	8e020000 	lw	v0,0(s0)
2000156c:	00000000 	nop
20001570:	00511024 	and	v0,v0,s1
20001574:	ae020000 	sw	v0,0(s0)
20001578:	8e020000 	lw	v0,0(s0)
2000157c:	00000000 	nop
20001580:	ae020000 	sw	v0,0(s0)
		SPI_Swap(SPI0, 0x02);
20001584:	0c000ae5 	jal	20002b94 <SPI_Swap>
20001588:	00000000 	nop
		SPI_Swap(SPI0, 0x70);
2000158c:	00002021 	move	a0,zero
20001590:	0c000ae5 	jal	20002b94 <SPI_Swap>
20001594:	24050070 	li	a1,112
		SPI_Swap(SPI0, 0x60);
20001598:	00002021 	move	a0,zero
2000159c:	0c000ae5 	jal	20002b94 <SPI_Swap>
200015a0:	24050060 	li	a1,96
		GPIO_Write(CS_PIN, GPIO_HIGH);
200015a4:	8e020000 	lw	v0,0(s0)

		/* Filter for impossible CAN ID */
		GPIO_Write(CS_PIN, GPIO_LOW);
		SPI_Swap(SPI0, 0x02);
200015a8:	00002021 	move	a0,zero
		/* RXB1CTRL */
		GPIO_Write(CS_PIN, GPIO_LOW);
		SPI_Swap(SPI0, 0x02);
		SPI_Swap(SPI0, 0x70);
		SPI_Swap(SPI0, 0x60);
		GPIO_Write(CS_PIN, GPIO_HIGH);
200015ac:	ae020000 	sw	v0,0(s0)
200015b0:	8e020000 	lw	v0,0(s0)

		/* Filter for impossible CAN ID */
		GPIO_Write(CS_PIN, GPIO_LOW);
		SPI_Swap(SPI0, 0x02);
200015b4:	24050002 	li	a1,2
		/* RXB1CTRL */
		GPIO_Write(CS_PIN, GPIO_LOW);
		SPI_Swap(SPI0, 0x02);
		SPI_Swap(SPI0, 0x70);
		SPI_Swap(SPI0, 0x60);
		GPIO_Write(CS_PIN, GPIO_HIGH);
200015b8:	34420040 	ori	v0,v0,0x40
200015bc:	ae020000 	sw	v0,0(s0)

		/* Filter for impossible CAN ID */
		GPIO_Write(CS_PIN, GPIO_LOW);
200015c0:	8e020000 	lw	v0,0(s0)
200015c4:	00000000 	nop
200015c8:	00511024 	and	v0,v0,s1
200015cc:	ae020000 	sw	v0,0(s0)
200015d0:	8e020000 	lw	v0,0(s0)
200015d4:	00000000 	nop
200015d8:	ae020000 	sw	v0,0(s0)
		SPI_Swap(SPI0, 0x02);
200015dc:	0c000ae5 	jal	20002b94 <SPI_Swap>
200015e0:	00000000 	nop
		SPI_Swap(SPI0, 0x08);
200015e4:	00002021 	move	a0,zero
200015e8:	0c000ae5 	jal	20002b94 <SPI_Swap>
200015ec:	24050008 	li	a1,8
		SPI_Swap(SPI0, 0x3F);
200015f0:	00002021 	move	a0,zero
200015f4:	0c000ae5 	jal	20002b94 <SPI_Swap>
200015f8:	2405003f 	li	a1,63
		SPI_Swap(SPI0, 0x0F);
200015fc:	00002021 	move	a0,zero
20001600:	0c000ae5 	jal	20002b94 <SPI_Swap>
20001604:	2405000f 	li	a1,15
		SPI_Swap(SPI0, 0xFF);
20001608:	00002021 	move	a0,zero
2000160c:	0c000ae5 	jal	20002b94 <SPI_Swap>
20001610:	240500ff 	li	a1,255
		SPI_Swap(SPI0, 0xFF);
20001614:	00002021 	move	a0,zero
20001618:	0c000ae5 	jal	20002b94 <SPI_Swap>
2000161c:	240500ff 	li	a1,255
		GPIO_Write(CS_PIN, GPIO_HIGH);
20001620:	8e020000 	lw	v0,0(s0)

		/* Mask for impossible CAN ID */
		GPIO_Write(CS_PIN, GPIO_LOW);
		SPI_Swap(SPI0, 0x02);
20001624:	00002021 	move	a0,zero
		SPI_Swap(SPI0, 0x08);
		SPI_Swap(SPI0, 0x3F);
		SPI_Swap(SPI0, 0x0F);
		SPI_Swap(SPI0, 0xFF);
		SPI_Swap(SPI0, 0xFF);
		GPIO_Write(CS_PIN, GPIO_HIGH);
20001628:	ae020000 	sw	v0,0(s0)
2000162c:	8e020000 	lw	v0,0(s0)

		/* Mask for impossible CAN ID */
		GPIO_Write(CS_PIN, GPIO_LOW);
		SPI_Swap(SPI0, 0x02);
20001630:	24050002 	li	a1,2
		SPI_Swap(SPI0, 0x08);
		SPI_Swap(SPI0, 0x3F);
		SPI_Swap(SPI0, 0x0F);
		SPI_Swap(SPI0, 0xFF);
		SPI_Swap(SPI0, 0xFF);
		GPIO_Write(CS_PIN, GPIO_HIGH);
20001634:	34420040 	ori	v0,v0,0x40
20001638:	ae020000 	sw	v0,0(s0)

		/* Mask for impossible CAN ID */
		GPIO_Write(CS_PIN, GPIO_LOW);
2000163c:	8e020000 	lw	v0,0(s0)
20001640:	00000000 	nop
20001644:	00511024 	and	v0,v0,s1
20001648:	ae020000 	sw	v0,0(s0)
2000164c:	8e020000 	lw	v0,0(s0)
20001650:	00000000 	nop
20001654:	ae020000 	sw	v0,0(s0)
		SPI_Swap(SPI0, 0x02);
20001658:	0c000ae5 	jal	20002b94 <SPI_Swap>
2000165c:	00000000 	nop
		SPI_Swap(SPI0, 0x24);
20001660:	00002021 	move	a0,zero
20001664:	0c000ae5 	jal	20002b94 <SPI_Swap>
20001668:	24050024 	li	a1,36
		SPI_Swap(SPI0, 0xFF);
2000166c:	00002021 	move	a0,zero
20001670:	0c000ae5 	jal	20002b94 <SPI_Swap>
20001674:	240500ff 	li	a1,255
		SPI_Swap(SPI0, 0xFF);
20001678:	00002021 	move	a0,zero
2000167c:	0c000ae5 	jal	20002b94 <SPI_Swap>
20001680:	240500ff 	li	a1,255
		SPI_Swap(SPI0, 0xFF);
20001684:	00002021 	move	a0,zero
20001688:	0c000ae5 	jal	20002b94 <SPI_Swap>
2000168c:	240500ff 	li	a1,255
		SPI_Swap(SPI0, 0xFF);
20001690:	00002021 	move	a0,zero
20001694:	0c000ae5 	jal	20002b94 <SPI_Swap>
20001698:	240500ff 	li	a1,255
		GPIO_Write(CS_PIN, GPIO_HIGH);
2000169c:	8e020000 	lw	v0,0(s0)

		/* CANCTRL - Set to Normal Mode */
		GPIO_Write(CS_PIN, GPIO_LOW);
		SPI_Swap(SPI0, 0x02);
200016a0:	00002021 	move	a0,zero
		SPI_Swap(SPI0, 0x24);
		SPI_Swap(SPI0, 0xFF);
		SPI_Swap(SPI0, 0xFF);
		SPI_Swap(SPI0, 0xFF);
		SPI_Swap(SPI0, 0xFF);
		GPIO_Write(CS_PIN, GPIO_HIGH);
200016a4:	ae020000 	sw	v0,0(s0)
200016a8:	8e020000 	lw	v0,0(s0)

		/* CANCTRL - Set to Normal Mode */
		GPIO_Write(CS_PIN, GPIO_LOW);
		SPI_Swap(SPI0, 0x02);
200016ac:	24050002 	li	a1,2
		SPI_Swap(SPI0, 0x24);
		SPI_Swap(SPI0, 0xFF);
		SPI_Swap(SPI0, 0xFF);
		SPI_Swap(SPI0, 0xFF);
		SPI_Swap(SPI0, 0xFF);
		GPIO_Write(CS_PIN, GPIO_HIGH);
200016b0:	34420040 	ori	v0,v0,0x40
200016b4:	ae020000 	sw	v0,0(s0)

		/* CANCTRL - Set to Normal Mode */
		GPIO_Write(CS_PIN, GPIO_LOW);
200016b8:	8e020000 	lw	v0,0(s0)
200016bc:	00000000 	nop
200016c0:	00518824 	and	s1,v0,s1
200016c4:	ae110000 	sw	s1,0(s0)
200016c8:	8e020000 	lw	v0,0(s0)
200016cc:	00000000 	nop
200016d0:	ae020000 	sw	v0,0(s0)
		SPI_Swap(SPI0, 0x02);
200016d4:	0c000ae5 	jal	20002b94 <SPI_Swap>
200016d8:	00000000 	nop
		SPI_Swap(SPI0, 0x0F);
200016dc:	00002021 	move	a0,zero
200016e0:	0c000ae5 	jal	20002b94 <SPI_Swap>
200016e4:	2405000f 	li	a1,15
		SPI_Swap(SPI0, 0x00);
200016e8:	00002021 	move	a0,zero
200016ec:	0c000ae5 	jal	20002b94 <SPI_Swap>
200016f0:	00002821 	move	a1,zero
		GPIO_Write(CS_PIN, GPIO_HIGH);
200016f4:	8e020000 	lw	v0,0(s0)

		init = True;
200016f8:	24030001 	li	v1,1
		/* CANCTRL - Set to Normal Mode */
		GPIO_Write(CS_PIN, GPIO_LOW);
		SPI_Swap(SPI0, 0x02);
		SPI_Swap(SPI0, 0x0F);
		SPI_Swap(SPI0, 0x00);
		GPIO_Write(CS_PIN, GPIO_HIGH);
200016fc:	ae020000 	sw	v0,0(s0)
20001700:	8e020000 	lw	v0,0(s0)

		init = True;
20001704:	af830170 	sw	v1,368(gp)
		/* CANCTRL - Set to Normal Mode */
		GPIO_Write(CS_PIN, GPIO_LOW);
		SPI_Swap(SPI0, 0x02);
		SPI_Swap(SPI0, 0x0F);
		SPI_Swap(SPI0, 0x00);
		GPIO_Write(CS_PIN, GPIO_HIGH);
20001708:	34420040 	ori	v0,v0,0x40
2000170c:	ae020000 	sw	v0,0(s0)
	/* Transmit "proper" CAN messages only when the Mode is GO */
	//if(System_Mode_G == Go || System_Mode_G == Game_Over)
	{
		/* Pull CS pin low - indicates start of transmission */
		/* Load CAN message into TX0: Left Motor */
		GPIO_Write(CS_PIN, GPIO_LOW);
20001710:	3c108000 	lui	s0,0x8000
20001714:	36100600 	ori	s0,s0,0x600
20001718:	8e020000 	lw	v0,0(s0)
2000171c:	2411ffbf 	li	s1,-65
20001720:	00511024 	and	v0,v0,s1
20001724:	ae020000 	sw	v0,0(s0)
20001728:	8e020000 	lw	v0,0(s0)
		SPI_Swap(SPI0, LOAD_TX0_INS);
2000172c:	00002021 	move	a0,zero
20001730:	24050040 	li	a1,64
	/* Transmit "proper" CAN messages only when the Mode is GO */
	//if(System_Mode_G == Go || System_Mode_G == Game_Over)
	{
		/* Pull CS pin low - indicates start of transmission */
		/* Load CAN message into TX0: Left Motor */
		GPIO_Write(CS_PIN, GPIO_LOW);
20001734:	ae020000 	sw	v0,0(s0)
		SPI_Swap(SPI0, LOAD_TX0_INS);
20001738:	0c000ae5 	jal	20002b94 <SPI_Swap>
2000173c:	00000000 	nop
		spi_buffer_CAN(canIDLf, 8, candataLf);
20001740:	8f8400e8 	lw	a0,232(gp)
20001744:	2786006c 	addiu	a2,gp,108
20001748:	0c00046f 	jal	200011bc <spi_buffer_CAN>
2000174c:	24050008 	li	a1,8
		GPIO_Write(CS_PIN, GPIO_HIGH);
20001750:	8e020000 	lw	v0,0(s0)

		/* Load CAN message into TX1: Right Motor */
		GPIO_Write(CS_PIN, GPIO_LOW);
		SPI_Swap(SPI0, LOAD_TX1_INS);
20001754:	00002021 	move	a0,zero
		/* Pull CS pin low - indicates start of transmission */
		/* Load CAN message into TX0: Left Motor */
		GPIO_Write(CS_PIN, GPIO_LOW);
		SPI_Swap(SPI0, LOAD_TX0_INS);
		spi_buffer_CAN(canIDLf, 8, candataLf);
		GPIO_Write(CS_PIN, GPIO_HIGH);
20001758:	ae020000 	sw	v0,0(s0)
2000175c:	8e020000 	lw	v0,0(s0)

		/* Load CAN message into TX1: Right Motor */
		GPIO_Write(CS_PIN, GPIO_LOW);
		SPI_Swap(SPI0, LOAD_TX1_INS);
20001760:	24050042 	li	a1,66
		/* Pull CS pin low - indicates start of transmission */
		/* Load CAN message into TX0: Left Motor */
		GPIO_Write(CS_PIN, GPIO_LOW);
		SPI_Swap(SPI0, LOAD_TX0_INS);
		spi_buffer_CAN(canIDLf, 8, candataLf);
		GPIO_Write(CS_PIN, GPIO_HIGH);
20001764:	34420040 	ori	v0,v0,0x40
20001768:	ae020000 	sw	v0,0(s0)

		/* Load CAN message into TX1: Right Motor */
		GPIO_Write(CS_PIN, GPIO_LOW);
2000176c:	8e020000 	lw	v0,0(s0)
20001770:	00000000 	nop
20001774:	00511024 	and	v0,v0,s1
20001778:	ae020000 	sw	v0,0(s0)
2000177c:	8e020000 	lw	v0,0(s0)
20001780:	00000000 	nop
20001784:	ae020000 	sw	v0,0(s0)
		SPI_Swap(SPI0, LOAD_TX1_INS);
20001788:	0c000ae5 	jal	20002b94 <SPI_Swap>
2000178c:	00000000 	nop
		spi_buffer_CAN(canIDRt, 8, candataRt);
20001790:	8f840068 	lw	a0,104(gp)
20001794:	27860098 	addiu	a2,gp,152
20001798:	0c00046f 	jal	200011bc <spi_buffer_CAN>
2000179c:	24050008 	li	a1,8
		GPIO_Write(CS_PIN, GPIO_HIGH);
200017a0:	8e020000 	lw	v0,0(s0)

		/* Load CAN message into TX2: Servo controls */
		GPIO_Write(CS_PIN, GPIO_LOW);
		SPI_Swap(SPI0, LOAD_TX2_INS);
200017a4:	00002021 	move	a0,zero

		/* Load CAN message into TX1: Right Motor */
		GPIO_Write(CS_PIN, GPIO_LOW);
		SPI_Swap(SPI0, LOAD_TX1_INS);
		spi_buffer_CAN(canIDRt, 8, candataRt);
		GPIO_Write(CS_PIN, GPIO_HIGH);
200017a8:	ae020000 	sw	v0,0(s0)
200017ac:	8e020000 	lw	v0,0(s0)

		/* Load CAN message into TX2: Servo controls */
		GPIO_Write(CS_PIN, GPIO_LOW);
		SPI_Swap(SPI0, LOAD_TX2_INS);
200017b0:	24050044 	li	a1,68

		/* Load CAN message into TX1: Right Motor */
		GPIO_Write(CS_PIN, GPIO_LOW);
		SPI_Swap(SPI0, LOAD_TX1_INS);
		spi_buffer_CAN(canIDRt, 8, candataRt);
		GPIO_Write(CS_PIN, GPIO_HIGH);
200017b4:	34420040 	ori	v0,v0,0x40
200017b8:	ae020000 	sw	v0,0(s0)

		/* Load CAN message into TX2: Servo controls */
		GPIO_Write(CS_PIN, GPIO_LOW);
200017bc:	8e020000 	lw	v0,0(s0)
200017c0:	00000000 	nop
200017c4:	00511024 	and	v0,v0,s1
200017c8:	ae020000 	sw	v0,0(s0)
200017cc:	8e020000 	lw	v0,0(s0)
200017d0:	00000000 	nop
200017d4:	ae020000 	sw	v0,0(s0)
		SPI_Swap(SPI0, LOAD_TX2_INS);
200017d8:	0c000ae5 	jal	20002b94 <SPI_Swap>
200017dc:	00000000 	nop
		spi_buffer_CAN(0x05A5EEEE, 8, candataEnc);
200017e0:	3c0405a5 	lui	a0,0x5a5
200017e4:	278600a8 	addiu	a2,gp,168
200017e8:	3484eeee 	ori	a0,a0,0xeeee
200017ec:	0c00046f 	jal	200011bc <spi_buffer_CAN>
200017f0:	24050008 	li	a1,8
		GPIO_Write(CS_PIN, GPIO_HIGH);
200017f4:	8e020000 	lw	v0,0(s0)

		/* Tx0 buffer full so request to send */
		GPIO_Write(CS_PIN, GPIO_LOW);
		SPI_Swap(SPI0, RTS_TX0_INS);
200017f8:	00002021 	move	a0,zero

		/* Load CAN message into TX2: Servo controls */
		GPIO_Write(CS_PIN, GPIO_LOW);
		SPI_Swap(SPI0, LOAD_TX2_INS);
		spi_buffer_CAN(0x05A5EEEE, 8, candataEnc);
		GPIO_Write(CS_PIN, GPIO_HIGH);
200017fc:	ae020000 	sw	v0,0(s0)
20001800:	8e020000 	lw	v0,0(s0)

		/* Tx0 buffer full so request to send */
		GPIO_Write(CS_PIN, GPIO_LOW);
		SPI_Swap(SPI0, RTS_TX0_INS);
20001804:	24050081 	li	a1,129

		/* Load CAN message into TX2: Servo controls */
		GPIO_Write(CS_PIN, GPIO_LOW);
		SPI_Swap(SPI0, LOAD_TX2_INS);
		spi_buffer_CAN(0x05A5EEEE, 8, candataEnc);
		GPIO_Write(CS_PIN, GPIO_HIGH);
20001808:	34420040 	ori	v0,v0,0x40
2000180c:	ae020000 	sw	v0,0(s0)

		/* Tx0 buffer full so request to send */
		GPIO_Write(CS_PIN, GPIO_LOW);
20001810:	8e020000 	lw	v0,0(s0)
20001814:	00000000 	nop
20001818:	00511024 	and	v0,v0,s1
2000181c:	ae020000 	sw	v0,0(s0)
20001820:	8e020000 	lw	v0,0(s0)
20001824:	00000000 	nop
20001828:	ae020000 	sw	v0,0(s0)
		SPI_Swap(SPI0, RTS_TX0_INS);
2000182c:	0c000ae5 	jal	20002b94 <SPI_Swap>
20001830:	00000000 	nop
		GPIO_Write(CS_PIN, GPIO_HIGH);
20001834:	8e020000 	lw	v0,0(s0)

		/* Tx1 buffer full so request to send */
		GPIO_Write(CS_PIN, GPIO_LOW);
		SPI_Swap(SPI0, RTS_TX1_INS);
20001838:	00002021 	move	a0,zero
		GPIO_Write(CS_PIN, GPIO_HIGH);

		/* Tx0 buffer full so request to send */
		GPIO_Write(CS_PIN, GPIO_LOW);
		SPI_Swap(SPI0, RTS_TX0_INS);
		GPIO_Write(CS_PIN, GPIO_HIGH);
2000183c:	ae020000 	sw	v0,0(s0)
20001840:	8e020000 	lw	v0,0(s0)

		/* Tx1 buffer full so request to send */
		GPIO_Write(CS_PIN, GPIO_LOW);
		SPI_Swap(SPI0, RTS_TX1_INS);
20001844:	24050082 	li	a1,130
		GPIO_Write(CS_PIN, GPIO_HIGH);

		/* Tx0 buffer full so request to send */
		GPIO_Write(CS_PIN, GPIO_LOW);
		SPI_Swap(SPI0, RTS_TX0_INS);
		GPIO_Write(CS_PIN, GPIO_HIGH);
20001848:	34420040 	ori	v0,v0,0x40
2000184c:	ae020000 	sw	v0,0(s0)

		/* Tx1 buffer full so request to send */
		GPIO_Write(CS_PIN, GPIO_LOW);
20001850:	8e020000 	lw	v0,0(s0)
20001854:	00000000 	nop
20001858:	00511024 	and	v0,v0,s1
2000185c:	ae020000 	sw	v0,0(s0)
20001860:	8e020000 	lw	v0,0(s0)
20001864:	00000000 	nop
20001868:	ae020000 	sw	v0,0(s0)
		SPI_Swap(SPI0, RTS_TX1_INS);
2000186c:	0c000ae5 	jal	20002b94 <SPI_Swap>
20001870:	00000000 	nop
		GPIO_Write(CS_PIN, GPIO_HIGH);
20001874:	8e020000 	lw	v0,0(s0)

		/* Tx2 buffer full so request to send */
		GPIO_Write(CS_PIN, GPIO_LOW);
		SPI_Swap(SPI0, RTS_TX2_INS);
20001878:	00002021 	move	a0,zero
		GPIO_Write(CS_PIN, GPIO_HIGH);

		/* Tx1 buffer full so request to send */
		GPIO_Write(CS_PIN, GPIO_LOW);
		SPI_Swap(SPI0, RTS_TX1_INS);
		GPIO_Write(CS_PIN, GPIO_HIGH);
2000187c:	ae020000 	sw	v0,0(s0)
20001880:	8e020000 	lw	v0,0(s0)

		/* Tx2 buffer full so request to send */
		GPIO_Write(CS_PIN, GPIO_LOW);
		SPI_Swap(SPI0, RTS_TX2_INS);
20001884:	24050084 	li	a1,132
		GPIO_Write(CS_PIN, GPIO_HIGH);

		/* Tx1 buffer full so request to send */
		GPIO_Write(CS_PIN, GPIO_LOW);
		SPI_Swap(SPI0, RTS_TX1_INS);
		GPIO_Write(CS_PIN, GPIO_HIGH);
20001888:	34420040 	ori	v0,v0,0x40
2000188c:	ae020000 	sw	v0,0(s0)

		/* Tx2 buffer full so request to send */
		GPIO_Write(CS_PIN, GPIO_LOW);
20001890:	8e020000 	lw	v0,0(s0)
20001894:	00000000 	nop
20001898:	00518824 	and	s1,v0,s1
2000189c:	ae110000 	sw	s1,0(s0)
200018a0:	8e020000 	lw	v0,0(s0)
200018a4:	00000000 	nop
200018a8:	ae020000 	sw	v0,0(s0)
		SPI_Swap(SPI0, RTS_TX2_INS);
200018ac:	0c000ae5 	jal	20002b94 <SPI_Swap>
200018b0:	00000000 	nop
		GPIO_Write(CS_PIN, GPIO_HIGH);
200018b4:	8e020000 	lw	v0,0(s0)

		/* Check Rx buffers for incoming message */
		spi_receive_CAN(READ_RX0_INS, &bufferRX0);
200018b8:	3c054000 	lui	a1,0x4000
		GPIO_Write(CS_PIN, GPIO_HIGH);

		/* Tx2 buffer full so request to send */
		GPIO_Write(CS_PIN, GPIO_LOW);
		SPI_Swap(SPI0, RTS_TX2_INS);
		GPIO_Write(CS_PIN, GPIO_HIGH);
200018bc:	ae020000 	sw	v0,0(s0)
200018c0:	8e020000 	lw	v0,0(s0)

		/* Check Rx buffers for incoming message */
		spi_receive_CAN(READ_RX0_INS, &bufferRX0);
	}

}
200018c4:	8fbf001c 	lw	ra,28(sp)
		GPIO_Write(CS_PIN, GPIO_HIGH);

		/* Tx2 buffer full so request to send */
		GPIO_Write(CS_PIN, GPIO_LOW);
		SPI_Swap(SPI0, RTS_TX2_INS);
		GPIO_Write(CS_PIN, GPIO_HIGH);
200018c8:	34420040 	ori	v0,v0,0x40
200018cc:	ae020000 	sw	v0,0(s0)

		/* Check Rx buffers for incoming message */
		spi_receive_CAN(READ_RX0_INS, &bufferRX0);
	}

}
200018d0:	8fb10018 	lw	s1,24(sp)
200018d4:	8fb00014 	lw	s0,20(sp)
		GPIO_Write(CS_PIN, GPIO_LOW);
		SPI_Swap(SPI0, RTS_TX2_INS);
		GPIO_Write(CS_PIN, GPIO_HIGH);

		/* Check Rx buffers for incoming message */
		spi_receive_CAN(READ_RX0_INS, &bufferRX0);
200018d8:	24a503bc 	addiu	a1,a1,956
200018dc:	24040090 	li	a0,144
200018e0:	08000437 	j	200010dc <spi_receive_CAN>
200018e4:	27bd0020 	addiu	sp,sp,32

200018e8 <Message_Sender_Init>:
/**
 * Initialisation for the SPI package.
 * This will be called from Tasks_Init by default.
 */
void Message_Sender_Init(void)
{
200018e8:	27bdffe8 	addiu	sp,sp,-24
	/* Task initialisation */
	// SPI  0
	// Mode 0
	// SCLK 1KHz = (50MHz / 1000)
	const uint32_t clock_divider = Config_Oscillator_Frequency / 10000000;
	SPI_Init(SPI0, 0, clock_divider);
200018ec:	00002021 	move	a0,zero
200018f0:	00002821 	move	a1,zero
/**
 * Initialisation for the SPI package.
 * This will be called from Tasks_Init by default.
 */
void Message_Sender_Init(void)
{
200018f4:	afbf0014 	sw	ra,20(sp)
	/* Task initialisation */
	// SPI  0
	// Mode 0
	// SCLK 1KHz = (50MHz / 1000)
	const uint32_t clock_divider = Config_Oscillator_Frequency / 10000000;
	SPI_Init(SPI0, 0, clock_divider);
200018f8:	0c000ad8 	jal	20002b60 <SPI_Init>
200018fc:	24060005 	li	a2,5
	speedPin = 0x33;

	bufferRX0.status = Used;
	bufferRX1.status = Used;

	GPIO_Set_Direction(CS_PIN, GPIO_OUTPUT);
20001900:	3c028000 	lui	v0,0x8000
20001904:	34420600 	ori	v0,v0,0x600
20001908:	8c440004 	lw	a0,4(v0)
2000190c:	2403ffbf 	li	v1,-65
20001910:	00831824 	and	v1,a0,v1
20001914:	ac430004 	sw	v1,4(v0)
20001918:	8c430004 	lw	v1,4(v0)
	GPIO_Write(RST_PIN, GPIO_HIGH);

	init = False;

	ticked = 0;
}
2000191c:	8fbf0014 	lw	ra,20(sp)
	speedPin = 0x33;

	bufferRX0.status = Used;
	bufferRX1.status = Used;

	GPIO_Set_Direction(CS_PIN, GPIO_OUTPUT);
20001920:	34630040 	ori	v1,v1,0x40
20001924:	ac430004 	sw	v1,4(v0)
	GPIO_Write(CS_PIN, GPIO_HIGH);
20001928:	8c440000 	lw	a0,0(v0)
	const uint32_t clock_divider = Config_Oscillator_Frequency / 10000000;
	SPI_Init(SPI0, 0, clock_divider);

	speedPin = 0x33;

	bufferRX0.status = Used;
2000192c:	24030001 	li	v1,1
	bufferRX1.status = Used;

	GPIO_Set_Direction(CS_PIN, GPIO_OUTPUT);
	GPIO_Write(CS_PIN, GPIO_HIGH);
20001930:	ac440000 	sw	a0,0(v0)
20001934:	8c440000 	lw	a0,0(v0)

	GPIO_Set_Direction(RST_PIN, GPIO_OUTPUT);
	GPIO_Write(RST_PIN, GPIO_HIGH);

	init = False;
20001938:	af800170 	sw	zero,368(gp)

	bufferRX0.status = Used;
	bufferRX1.status = Used;

	GPIO_Set_Direction(CS_PIN, GPIO_OUTPUT);
	GPIO_Write(CS_PIN, GPIO_HIGH);
2000193c:	34840040 	ori	a0,a0,0x40
20001940:	ac440000 	sw	a0,0(v0)

	GPIO_Set_Direction(RST_PIN, GPIO_OUTPUT);
20001944:	8c450004 	lw	a1,4(v0)
20001948:	2404fffb 	li	a0,-5
2000194c:	00a42024 	and	a0,a1,a0
20001950:	ac440004 	sw	a0,4(v0)
20001954:	8c440004 	lw	a0,4(v0)
	SPI_Init(SPI0, 0, clock_divider);

	speedPin = 0x33;

	bufferRX0.status = Used;
	bufferRX1.status = Used;
20001958:	3c054000 	lui	a1,0x4000

	GPIO_Set_Direction(CS_PIN, GPIO_OUTPUT);
	GPIO_Write(CS_PIN, GPIO_HIGH);

	GPIO_Set_Direction(RST_PIN, GPIO_OUTPUT);
2000195c:	34840004 	ori	a0,a0,0x4
20001960:	ac440004 	sw	a0,4(v0)
	GPIO_Write(RST_PIN, GPIO_HIGH);
20001964:	8c440000 	lw	a0,0(v0)
	SPI_Init(SPI0, 0, clock_divider);

	speedPin = 0x33;

	bufferRX0.status = Used;
	bufferRX1.status = Used;
20001968:	aca303cc 	sw	v1,972(a1)

	GPIO_Set_Direction(CS_PIN, GPIO_OUTPUT);
	GPIO_Write(CS_PIN, GPIO_HIGH);

	GPIO_Set_Direction(RST_PIN, GPIO_OUTPUT);
	GPIO_Write(RST_PIN, GPIO_HIGH);
2000196c:	ac440000 	sw	a0,0(v0)
20001970:	8c440000 	lw	a0,0(v0)
	// Mode 0
	// SCLK 1KHz = (50MHz / 1000)
	const uint32_t clock_divider = Config_Oscillator_Frequency / 10000000;
	SPI_Init(SPI0, 0, clock_divider);

	speedPin = 0x33;
20001974:	24050033 	li	a1,51

	GPIO_Set_Direction(CS_PIN, GPIO_OUTPUT);
	GPIO_Write(CS_PIN, GPIO_HIGH);

	GPIO_Set_Direction(RST_PIN, GPIO_OUTPUT);
	GPIO_Write(RST_PIN, GPIO_HIGH);
20001978:	34840004 	ori	a0,a0,0x4
	// Mode 0
	// SCLK 1KHz = (50MHz / 1000)
	const uint32_t clock_divider = Config_Oscillator_Frequency / 10000000;
	SPI_Init(SPI0, 0, clock_divider);

	speedPin = 0x33;
2000197c:	a385016d 	sb	a1,365(gp)

	GPIO_Set_Direction(CS_PIN, GPIO_OUTPUT);
	GPIO_Write(CS_PIN, GPIO_HIGH);

	GPIO_Set_Direction(RST_PIN, GPIO_OUTPUT);
	GPIO_Write(RST_PIN, GPIO_HIGH);
20001980:	ac440000 	sw	a0,0(v0)
	const uint32_t clock_divider = Config_Oscillator_Frequency / 10000000;
	SPI_Init(SPI0, 0, clock_divider);

	speedPin = 0x33;

	bufferRX0.status = Used;
20001984:	3c024000 	lui	v0,0x4000
20001988:	ac4303bc 	sw	v1,956(v0)
	GPIO_Set_Direction(RST_PIN, GPIO_OUTPUT);
	GPIO_Write(RST_PIN, GPIO_HIGH);

	init = False;

	ticked = 0;
2000198c:	a7800190 	sh	zero,400(gp)
}
20001990:	03e00008 	jr	ra
20001994:	27bd0018 	addiu	sp,sp,24

20001998 <Flashing_LED_Init>:
/**
 * Initialises the GPIO pin and outputs the initial value to the LED.
 */
void Flashing_LED_Init(void)
{
	GPIO_Set_Direction(LED_Pin, GPIO_OUTPUT);
20001998:	3c028000 	lui	v0,0x8000
2000199c:	34420200 	ori	v0,v0,0x200
200019a0:	8c440004 	lw	a0,4(v0)
200019a4:	2403fdff 	li	v1,-513
200019a8:	00831824 	and	v1,a0,v1
200019ac:	ac430004 	sw	v1,4(v0)
200019b0:	8c440004 	lw	a0,4(v0)
	GPIO_Write(LED_Pin, led_state);
200019b4:	8f830004 	lw	v1,4(gp)
/**
 * Initialises the GPIO pin and outputs the initial value to the LED.
 */
void Flashing_LED_Init(void)
{
	GPIO_Set_Direction(LED_Pin, GPIO_OUTPUT);
200019b8:	34840200 	ori	a0,a0,0x200
200019bc:	ac440004 	sw	a0,4(v0)
	GPIO_Write(LED_Pin, led_state);
200019c0:	2c640001 	sltiu	a0,v1,1
200019c4:	8c450000 	lw	a1,0(v0)
200019c8:	00042240 	sll	a0,a0,0x9
200019cc:	00042027 	nor	a0,zero,a0
200019d0:	00852024 	and	a0,a0,a1
200019d4:	ac440000 	sw	a0,0(v0)
200019d8:	8c440000 	lw	a0,0(v0)
200019dc:	00031a40 	sll	v1,v1,0x9
200019e0:	00641825 	or	v1,v1,a0
200019e4:	ac430000 	sw	v1,0(v0)
}
200019e8:	03e00008 	jr	ra
200019ec:	00000000 	nop

200019f0 <Flashing_LED_Toggle>:
/**
 * Toggles the state of the GPIO pin and its LED.
 */
void Flashing_LED_Toggle(void)
{
	GPIO_Write(LED_Pin, led_state);
200019f0:	8f830004 	lw	v1,4(gp)
200019f4:	3c028000 	lui	v0,0x8000
200019f8:	34420200 	ori	v0,v0,0x200
200019fc:	2c640001 	sltiu	a0,v1,1
20001a00:	8c460000 	lw	a2,0(v0)
20001a04:	00042a40 	sll	a1,a0,0x9
20001a08:	00052827 	nor	a1,zero,a1
20001a0c:	00a62824 	and	a1,a1,a2
20001a10:	ac450000 	sw	a1,0(v0)
20001a14:	8c450000 	lw	a1,0(v0)
20001a18:	00033240 	sll	a2,v1,0x9
20001a1c:	00c52825 	or	a1,a2,a1
	if(System_Mode_G == Set)
20001a20:	8f860104 	lw	a2,260(gp)
/**
 * Toggles the state of the GPIO pin and its LED.
 */
void Flashing_LED_Toggle(void)
{
	GPIO_Write(LED_Pin, led_state);
20001a24:	ac450000 	sw	a1,0(v0)
	if(System_Mode_G == Set)
20001a28:	24050001 	li	a1,1
20001a2c:	14c5000a 	bne	a2,a1,20001a58 <Flashing_LED_Toggle+0x68>
20001a30:	00000000 	nop
	{
		GPIO_Write(Error_Lamp, led_state);
20001a34:	8c450000 	lw	a1,0(v0)
20001a38:	00042200 	sll	a0,a0,0x8
20001a3c:	00042027 	nor	a0,zero,a0
20001a40:	00852024 	and	a0,a0,a1
20001a44:	ac440000 	sw	a0,0(v0)
20001a48:	8c440000 	lw	a0,0(v0)
20001a4c:	00032a00 	sll	a1,v1,0x8
20001a50:	0800069b 	j	20001a6c <Flashing_LED_Toggle+0x7c>
20001a54:	00a42025 	or	a0,a1,a0
	}
	else
	{
		GPIO_Write(Error_Lamp, GPIO_LOW);
20001a58:	8c450000 	lw	a1,0(v0)
20001a5c:	2404feff 	li	a0,-257
20001a60:	00a42024 	and	a0,a1,a0
20001a64:	ac440000 	sw	a0,0(v0)
20001a68:	8c440000 	lw	a0,0(v0)
	}
	led_state = !led_state;
20001a6c:	2c630001 	sltiu	v1,v1,1
	{
		GPIO_Write(Error_Lamp, led_state);
	}
	else
	{
		GPIO_Write(Error_Lamp, GPIO_LOW);
20001a70:	ac440000 	sw	a0,0(v0)
	}
	led_state = !led_state;
}
20001a74:	03e00008 	jr	ra
20001a78:	af830004 	sw	v1,4(gp)

20001a7c <Course_Corrector_Init>:
 * This will be called from Tasks_Init by default.
 */
void Course_Corrector_Init(void)
{
	/* Initialisation of course correction values */
	Course_correction_Lf = False;
20001a7c:	af800074 	sw	zero,116(gp)
	Course_correction_Rt = False;
}
20001a80:	03e00008 	jr	ra
20001a84:	af800064 	sw	zero,100(gp)

20001a88 <Course_Corrector_Update>:
 * Basic implementation: To reduce the speed of the faster side.
 * Advanced requirement: To recalculate the Script to compensate for deviation.
 */
void Course_Corrector_Update(void)
{
	if(System_Mode_G == Go)
20001a88:	8f830104 	lw	v1,260(gp)
20001a8c:	24020002 	li	v0,2
20001a90:	14620011 	bne	v1,v0,20001ad8 <Course_Corrector_Update+0x50>
20001a94:	00000000 	nop
	{
		/* Encoder monitor task */
		/* If the Left side is faster than the Right, activate the Left CC flag */
		if((Motor_Lf_Enc_Track - Motor_Rt_Enc_Track) > COURSE_CORRECTION_BUFFER)
20001a98:	8f820040 	lw	v0,64(gp)
20001a9c:	8f8300d8 	lw	v1,216(gp)
20001aa0:	00000000 	nop
20001aa4:	00432023 	subu	a0,v0,v1
20001aa8:	28840002 	slti	a0,a0,2
20001aac:	14800005 	bnez	a0,20001ac4 <Course_Corrector_Update+0x3c>
20001ab0:	00621023 	subu	v0,v1,v0
		{
			Course_correction_Lf = False;
			Course_correction_Rt = True;
20001ab4:	24020001 	li	v0,1
20001ab8:	af820064 	sw	v0,100(gp)
	{
		/* Encoder monitor task */
		/* If the Left side is faster than the Right, activate the Left CC flag */
		if((Motor_Lf_Enc_Track - Motor_Rt_Enc_Track) > COURSE_CORRECTION_BUFFER)
		{
			Course_correction_Lf = False;
20001abc:	03e00008 	jr	ra
20001ac0:	af800074 	sw	zero,116(gp)
			Course_correction_Rt = True;
		}
		/* If the Right side is faster than the Left, activate the Right CC flag */
		else if((Motor_Rt_Enc_Track - Motor_Lf_Enc_Track) > COURSE_CORRECTION_BUFFER)
20001ac4:	28420002 	slti	v0,v0,2
20001ac8:	14400003 	bnez	v0,20001ad8 <Course_Corrector_Update+0x50>
20001acc:	24020001 	li	v0,1
		{
			Course_correction_Lf = True;
20001ad0:	080006b7 	j	20001adc <Course_Corrector_Update+0x54>
20001ad4:	af820074 	sw	v0,116(gp)

	}
	/* Ensure default is False */
	else
	{
		Course_correction_Lf = False;
20001ad8:	af800074 	sw	zero,116(gp)
		Course_correction_Rt = False;
20001adc:	03e00008 	jr	ra
20001ae0:	af800064 	sw	zero,100(gp)

20001ae4 <CAN_relay_Init>:
 * This will be called from Tasks_Init by default.
 */
void CAN_relay_Init(void)
{
	/* Initialisation of variables */
	motor_speed_Lf = 0x0;
20001ae4:	a7800196 	sh	zero,406(gp)
	motor_speed_Rt = 0x0;
20001ae8:	a7800194 	sh	zero,404(gp)
	motor_direction_Lf = 0x0;
20001aec:	a3800198 	sb	zero,408(gp)
	motor_direction_Rt = 0x0;
20001af0:	a3800192 	sb	zero,402(gp)
	canIDLf = 0;
20001af4:	af8000e8 	sw	zero,232(gp)
	canIDRt = 0;
20001af8:	af800068 	sw	zero,104(gp)
20001afc:	00001021 	move	v0,zero
	for(uint8_t i = 0; i < 8; i++)
	{
		candataLf[i] = 0;
20001b00:	2785006c 	addiu	a1,gp,108
		candataRt[i] = 0;
20001b04:	27840098 	addiu	a0,gp,152
	motor_speed_Rt = 0x0;
	motor_direction_Lf = 0x0;
	motor_direction_Rt = 0x0;
	canIDLf = 0;
	canIDRt = 0;
	for(uint8_t i = 0; i < 8; i++)
20001b08:	24030008 	li	v1,8
	{
		candataLf[i] = 0;
20001b0c:	00453821 	addu	a3,v0,a1
		candataRt[i] = 0;
20001b10:	00443021 	addu	a2,v0,a0
20001b14:	24420001 	addiu	v0,v0,1
	motor_direction_Rt = 0x0;
	canIDLf = 0;
	canIDRt = 0;
	for(uint8_t i = 0; i < 8; i++)
	{
		candataLf[i] = 0;
20001b18:	a0e00000 	sb	zero,0(a3)
	motor_speed_Rt = 0x0;
	motor_direction_Lf = 0x0;
	motor_direction_Rt = 0x0;
	canIDLf = 0;
	canIDRt = 0;
	for(uint8_t i = 0; i < 8; i++)
20001b1c:	1443fffb 	bne	v0,v1,20001b0c <CAN_relay_Init+0x28>
20001b20:	a0c00000 	sb	zero,0(a2)
		candataLf[i] = 0;
		candataRt[i] = 0;
	}

	/* Initialisation of Sensor Readings */
	sensorReadings.IRLeft = 0xFF;
20001b24:	3c044000 	lui	a0,0x4000
20001b28:	240200ff 	li	v0,255
	sensorReadings.IRRight = 0xFF;
20001b2c:	248303dc 	addiu	v1,a0,988
	sensorReadings.USFwd = 0xFF;
20001b30:	ac620008 	sw	v0,8(v1)
		candataLf[i] = 0;
		candataRt[i] = 0;
	}

	/* Initialisation of Sensor Readings */
	sensorReadings.IRLeft = 0xFF;
20001b34:	ac8203dc 	sw	v0,988(a0)
	sensorReadings.IRRight = 0xFF;
	sensorReadings.USFwd = 0xFF;
}
20001b38:	03e00008 	jr	ra
20001b3c:	ac620004 	sw	v0,4(v1)

20001b40 <constructCANEnc>:
}

void constructCANEnc(void)
{

	candataEnc[0] =  (WheelCounts_Left_G  >>24)&0xFF;
20001b40:	8f830088 	lw	v1,136(gp)
	candataEnc[1] =  (WheelCounts_Left_G  >>16)&0xFF;
	candataEnc[2] =  (WheelCounts_Left_G  >>8) &0xFF;
	candataEnc[3] =  (WheelCounts_Left_G  >>0) &0xFF;
	candataEnc[4] =  (WheelCounts_Right_G >>24)&0xFF;
20001b44:	8f8200c8 	lw	v0,200(gp)
}

void constructCANEnc(void)
{

	candataEnc[0] =  (WheelCounts_Left_G  >>24)&0xFF;
20001b48:	00034e02 	srl	t1,v1,0x18
	candataEnc[1] =  (WheelCounts_Left_G  >>16)&0xFF;
20001b4c:	00034403 	sra	t0,v1,0x10
	candataEnc[2] =  (WheelCounts_Left_G  >>8) &0xFF;
20001b50:	00033a03 	sra	a3,v1,0x8
	candataEnc[3] =  (WheelCounts_Left_G  >>0) &0xFF;
	candataEnc[4] =  (WheelCounts_Right_G >>24)&0xFF;
20001b54:	00023602 	srl	a2,v0,0x18
	candataEnc[5] =  (WheelCounts_Right_G >>16)&0xFF;
20001b58:	00022c03 	sra	a1,v0,0x10
	candataEnc[6] =  (WheelCounts_Right_G >>8) &0xFF;
20001b5c:	00022203 	sra	a0,v0,0x8
}

void constructCANEnc(void)
{

	candataEnc[0] =  (WheelCounts_Left_G  >>24)&0xFF;
20001b60:	a38900a8 	sb	t1,168(gp)
	candataEnc[1] =  (WheelCounts_Left_G  >>16)&0xFF;
20001b64:	a38800a9 	sb	t0,169(gp)
	candataEnc[2] =  (WheelCounts_Left_G  >>8) &0xFF;
20001b68:	a38700aa 	sb	a3,170(gp)
	candataEnc[3] =  (WheelCounts_Left_G  >>0) &0xFF;
20001b6c:	a38300ab 	sb	v1,171(gp)
	candataEnc[4] =  (WheelCounts_Right_G >>24)&0xFF;
20001b70:	a38600ac 	sb	a2,172(gp)
	candataEnc[5] =  (WheelCounts_Right_G >>16)&0xFF;
20001b74:	a38500ad 	sb	a1,173(gp)
	candataEnc[6] =  (WheelCounts_Right_G >>8) &0xFF;
20001b78:	a38400ae 	sb	a0,174(gp)
	candataEnc[7] =  (WheelCounts_Right_G >>0) &0xFF;
}
20001b7c:	03e00008 	jr	ra
20001b80:	a38200af 	sb	v0,175(gp)

20001b84 <CAN_relay_Update>:
}

void readCAN(void)
{
	/* Check to see data received from Proximity sensor */
	sensorReadings.IRLeft = bufferRX0.CAN_Data[3] & 0x3F;
20001b84:	3c024000 	lui	v0,0x4000
20001b88:	244203bc 	addiu	v0,v0,956
	sensorReadings.IRRight = bufferRX0.CAN_Data[5] & 0x3F;

	sensorReadings.USFwd = ((((bufferRX0.CAN_Data[6] & 0x3F) << 6) | (bufferRX0.CAN_Data[7] & 0x3F)) & 0x0FFF);
20001b8c:	9047000e 	lbu	a3,14(v0)
20001b90:	9043000f 	lbu	v1,15(v0)

void readCAN(void)
{
	/* Check to see data received from Proximity sensor */
	sensorReadings.IRLeft = bufferRX0.CAN_Data[3] & 0x3F;
	sensorReadings.IRRight = bufferRX0.CAN_Data[5] & 0x3F;
20001b94:	9045000d 	lbu	a1,13(v0)

	sensorReadings.USFwd = ((((bufferRX0.CAN_Data[6] & 0x3F) << 6) | (bufferRX0.CAN_Data[7] & 0x3F)) & 0x0FFF);
20001b98:	30e7003f 	andi	a3,a3,0x3f
}

void readCAN(void)
{
	/* Check to see data received from Proximity sensor */
	sensorReadings.IRLeft = bufferRX0.CAN_Data[3] & 0x3F;
20001b9c:	9046000b 	lbu	a2,11(v0)
	sensorReadings.IRRight = bufferRX0.CAN_Data[5] & 0x3F;

	sensorReadings.USFwd = ((((bufferRX0.CAN_Data[6] & 0x3F) << 6) | (bufferRX0.CAN_Data[7] & 0x3F)) & 0x0FFF);
20001ba0:	3063003f 	andi	v1,v1,0x3f
}

void readCAN(void)
{
	/* Check to see data received from Proximity sensor */
	sensorReadings.IRLeft = bufferRX0.CAN_Data[3] & 0x3F;
20001ba4:	3c044000 	lui	a0,0x4000
	sensorReadings.IRRight = bufferRX0.CAN_Data[5] & 0x3F;

	sensorReadings.USFwd = ((((bufferRX0.CAN_Data[6] & 0x3F) << 6) | (bufferRX0.CAN_Data[7] & 0x3F)) & 0x0FFF);
20001ba8:	00073980 	sll	a3,a3,0x6
20001bac:	00e33825 	or	a3,a3,v1

void readCAN(void)
{
	/* Check to see data received from Proximity sensor */
	sensorReadings.IRLeft = bufferRX0.CAN_Data[3] & 0x3F;
	sensorReadings.IRRight = bufferRX0.CAN_Data[5] & 0x3F;
20001bb0:	30a5003f 	andi	a1,a1,0x3f
20001bb4:	248303dc 	addiu	v1,a0,988
	{
		/* Read CAN buffer */
		readCAN();

		/* Motor direction control */
		switch(Left_motor_direction_G)
20001bb8:	8f820094 	lw	v0,148(gp)
}

void readCAN(void)
{
	/* Check to see data received from Proximity sensor */
	sensorReadings.IRLeft = bufferRX0.CAN_Data[3] & 0x3F;
20001bbc:	30c6003f 	andi	a2,a2,0x3f
	sensorReadings.IRRight = bufferRX0.CAN_Data[5] & 0x3F;

	sensorReadings.USFwd = ((((bufferRX0.CAN_Data[6] & 0x3F) << 6) | (bufferRX0.CAN_Data[7] & 0x3F)) & 0x0FFF);
20001bc0:	ac670008 	sw	a3,8(v1)

void readCAN(void)
{
	/* Check to see data received from Proximity sensor */
	sensorReadings.IRLeft = bufferRX0.CAN_Data[3] & 0x3F;
	sensorReadings.IRRight = bufferRX0.CAN_Data[5] & 0x3F;
20001bc4:	ac650004 	sw	a1,4(v1)
	{
		/* Read CAN buffer */
		readCAN();

		/* Motor direction control */
		switch(Left_motor_direction_G)
20001bc8:	24030001 	li	v1,1
20001bcc:	10430004 	beq	v0,v1,20001be0 <CAN_relay_Update+0x5c>
20001bd0:	ac8603dc 	sw	a2,988(a0)
20001bd4:	24030002 	li	v1,2
20001bd8:	14430003 	bne	v0,v1,20001be8 <CAN_relay_Update+0x64>
20001bdc:	00000000 	nop
		case Forwards:
			motor_direction_Lf = 0x1;
			break;
		case Reverse:
			motor_direction_Lf = 0x2;
			break;
20001be0:	080006fb 	j	20001bec <CAN_relay_Update+0x68>
20001be4:	a3820198 	sb	v0,408(gp)
		case Off:
		default:
			motor_direction_Lf = 0x0;
20001be8:	a3800198 	sb	zero,408(gp)
			break;
		}

		switch(Right_motor_direction_G)
20001bec:	8f820084 	lw	v0,132(gp)
20001bf0:	24030001 	li	v1,1
20001bf4:	10430003 	beq	v0,v1,20001c04 <CAN_relay_Update+0x80>
20001bf8:	24030002 	li	v1,2
20001bfc:	14430003 	bne	v0,v1,20001c0c <CAN_relay_Update+0x88>
20001c00:	00000000 	nop
		case Forwards:
			motor_direction_Rt = 0x1;
			break;
		case Reverse:
			motor_direction_Rt = 0x2;
			break;
20001c04:	08000704 	j	20001c10 <CAN_relay_Update+0x8c>
20001c08:	a3820192 	sb	v0,402(gp)
		case Off:
		default:
			motor_direction_Rt = 0x0;
20001c0c:	a3800192 	sb	zero,402(gp)
			break;
		}

		/* Motor speed value has a resolution of 0.5 RPM per bit; multiply value by 2 */
		motor_speed_Lf = Left_motor_speed_G * 2;
20001c10:	978300b0 	lhu	v1,176(gp)
		motor_speed_Rt = Right_motor_speed_G * 2;
20001c14:	978200b2 	lhu	v0,178(gp)
			motor_direction_Rt = 0x0;
			break;
		}

		/* Motor speed value has a resolution of 0.5 RPM per bit; multiply value by 2 */
		motor_speed_Lf = Left_motor_speed_G * 2;
20001c18:	00031840 	sll	v1,v1,0x1
20001c1c:	3063ffff 	andi	v1,v1,0xffff
	 * Byte 2: Motor speed LO_BYTE
	 * Byte 3: Motor speed HI_BYTE
	 */
	candataLf[0] = motor_direction_Lf & 0x3;
	candataLf[2] = motor_speed_Lf & 0xFF;
	candataLf[3] = motor_speed_Lf >> 8;
20001c20:	00033202 	srl	a2,v1,0x8
			break;
		}

		/* Motor speed value has a resolution of 0.5 RPM per bit; multiply value by 2 */
		motor_speed_Lf = Left_motor_speed_G * 2;
		motor_speed_Rt = Right_motor_speed_G * 2;
20001c24:	00021040 	sll	v0,v0,0x1
	/* CAN_Data
	 * Byte 0: Motor direction
	 * Byte 2: Motor speed LO_BYTE
	 * Byte 3: Motor speed HI_BYTE
	 */
	candataLf[0] = motor_direction_Lf & 0x3;
20001c28:	93870198 	lbu	a3,408(gp)
}

void constructCANRt(void)
{
	canIDRt = 0x10EFD100;
	candataRt[0] = motor_direction_Rt & 0x3;
20001c2c:	93850192 	lbu	a1,402(gp)
			break;
		}

		/* Motor speed value has a resolution of 0.5 RPM per bit; multiply value by 2 */
		motor_speed_Lf = Left_motor_speed_G * 2;
		motor_speed_Rt = Right_motor_speed_G * 2;
20001c30:	3042ffff 	andi	v0,v0,0xffff
	 * Byte 0: Priority. (Bits 3,4,5) [Bits 0,1,2,6,7 excluded]
	 * Byte 1: PDU1 Proprietary A identifier for peer-to-peer communications.
	 * Byte 2: Destination Peer Address: Motor Controller Address. Configurable using MC configuration utility.
	 * Byte 3: Source Peer Address.
	 */
	canIDLf = 0x14EFD000;
20001c34:	3c0814ef 	lui	t0,0x14ef
	 * Byte 2: Motor speed LO_BYTE
	 * Byte 3: Motor speed HI_BYTE
	 */
	candataLf[0] = motor_direction_Lf & 0x3;
	candataLf[2] = motor_speed_Lf & 0xFF;
	candataLf[3] = motor_speed_Lf >> 8;
20001c38:	a386006f 	sb	a2,111(gp)
}

void constructCANRt(void)
{
	canIDRt = 0x10EFD100;
20001c3c:	3c0610ef 	lui	a2,0x10ef
	/* CAN_Data
	 * Byte 0: Motor direction
	 * Byte 2: Motor speed LO_BYTE
	 * Byte 3: Motor speed HI_BYTE
	 */
	candataLf[0] = motor_direction_Lf & 0x3;
20001c40:	30e70003 	andi	a3,a3,0x3
}

void constructCANRt(void)
{
	canIDRt = 0x10EFD100;
	candataRt[0] = motor_direction_Rt & 0x3;
20001c44:	30a50003 	andi	a1,a1,0x3
	candataRt[2] = motor_speed_Rt & 0xFF;
	candataRt[3] = motor_speed_Rt >> 8;
20001c48:	00022202 	srl	a0,v0,0x8
	 * Byte 0: Priority. (Bits 3,4,5) [Bits 0,1,2,6,7 excluded]
	 * Byte 1: PDU1 Proprietary A identifier for peer-to-peer communications.
	 * Byte 2: Destination Peer Address: Motor Controller Address. Configurable using MC configuration utility.
	 * Byte 3: Source Peer Address.
	 */
	canIDLf = 0x14EFD000;
20001c4c:	3508d000 	ori	t0,t0,0xd000
	candataLf[3] = motor_speed_Lf >> 8;
}

void constructCANRt(void)
{
	canIDRt = 0x10EFD100;
20001c50:	34c6d100 	ori	a2,a2,0xd100
	 * Byte 0: Priority. (Bits 3,4,5) [Bits 0,1,2,6,7 excluded]
	 * Byte 1: PDU1 Proprietary A identifier for peer-to-peer communications.
	 * Byte 2: Destination Peer Address: Motor Controller Address. Configurable using MC configuration utility.
	 * Byte 3: Source Peer Address.
	 */
	canIDLf = 0x14EFD000;
20001c54:	af8800e8 	sw	t0,232(gp)
	/* CAN_Data
	 * Byte 0: Motor direction
	 * Byte 2: Motor speed LO_BYTE
	 * Byte 3: Motor speed HI_BYTE
	 */
	candataLf[0] = motor_direction_Lf & 0x3;
20001c58:	a387006c 	sb	a3,108(gp)
	candataLf[3] = motor_speed_Lf >> 8;
}

void constructCANRt(void)
{
	canIDRt = 0x10EFD100;
20001c5c:	af860068 	sw	a2,104(gp)
	candataRt[0] = motor_direction_Rt & 0x3;
20001c60:	a3850098 	sb	a1,152(gp)
	candataRt[2] = motor_speed_Rt & 0xFF;
	candataRt[3] = motor_speed_Rt >> 8;
20001c64:	a384009b 	sb	a0,155(gp)
			motor_direction_Rt = 0x0;
			break;
		}

		/* Motor speed value has a resolution of 0.5 RPM per bit; multiply value by 2 */
		motor_speed_Lf = Left_motor_speed_G * 2;
20001c68:	a7830196 	sh	v1,406(gp)
		motor_speed_Rt = Right_motor_speed_G * 2;
20001c6c:	a7820194 	sh	v0,404(gp)
	 * Byte 0: Motor direction
	 * Byte 2: Motor speed LO_BYTE
	 * Byte 3: Motor speed HI_BYTE
	 */
	candataLf[0] = motor_direction_Lf & 0x3;
	candataLf[2] = motor_speed_Lf & 0xFF;
20001c70:	a383006e 	sb	v1,110(gp)


		/* Construct the CAN messages based on the information */
		constructCANLf();
		constructCANRt();
		constructCANEnc();
20001c74:	080006d0 	j	20001b40 <constructCANEnc>
20001c78:	a382009a 	sb	v0,154(gp)

20001c7c <Handler>:
        .section .text.Handler
        .ent Handler
        .set noat
        .set noreorder
Handler:
        mfc0   $26, $13			# Read CP0 Cause register
20001c7c:	401a6800 	mfc0	k0,c0_cause
		nop
20001c80:	00000000 	nop
		and    $27, $26, 0x3f
20001c84:	335b003f 	andi	k1,k0,0x3f
		la	   $26, TableBase
20001c88:	3c1a4000 	lui	k0,0x4000
20001c8c:	275a0138 	addiu	k0,k0,312
		addu   $26, $26, $27
20001c90:	035bd021 	addu	k0,k0,k1
		lw     $27, 0($26)
20001c94:	8f5b0000 	lw	k1,0(k0)
		nop
20001c98:	00000000 	nop
		j	   $27
20001c9c:	03600008 	jr	k1
        nop
20001ca0:	00000000 	nop

20001ca4 <End_Handler>:
        .end Handler

      .globl End_Handler
      .ent End_Handler
End_Handler:
 		mfc0   $26,$14         # Read CP0 EPC return address Reg
20001ca4:	401a7000 	mfc0	k0,c0_epc
        nop
20001ca8:	00000000 	nop
        j      $26             # Return from handler
20001cac:	03400008 	jr	k0
        rfe
20001cb0:	42000010 	rfe

20001cb4 <Excpt_Unused>:
	.set noreorder
	.set noat

	.globl Excpt_Unused
Excpt_Unused:
        j    Excpt_Unused 	# Loop
20001cb4:	0800072d 00000000                       -.......

20001cbc <Excpt_IAbort>:
        nop

	.globl Excpt_IAbort
Excpt_IAbort:
		mfc0   $26,$14         # Read CP0 EPC return address Reg
20001cbc:	401a7000 0800072f 00000000              .p.@/.......

20001cc8 <Excpt_DAbort>:
        j    Excpt_IAbort 	   # Loop
        nop

	.globl Excpt_DAbort
Excpt_DAbort:
        j    Excpt_DAbort 	   # Loop
20001cc8:	08000732 00000000                       2.......

20001cd0 <Excpt_Syscall>:
        nop

	.globl Excpt_Syscall
Excpt_Syscall:
        j    Excpt_Syscall 	   # Loop
20001cd0:	08000734 00000000                       4.......

20001cd8 <Excpt_UndefInst>:
        nop

	.globl Excpt_UndefInst
Excpt_UndefInst:
        j    Excpt_UndefInst   # Loop
20001cd8:	08000736 00000000                       6.......

20001ce0 <Excpt_Overflow>:
        nop

	.globl Excpt_Overflow
Excpt_Overflow:
        j    Excpt_Overflow	   # Loop
20001ce0:	08000738 00000000                       8.......

20001ce8 <Excpt_CoPro>:
        nop

	.globl Excpt_CoPro
Excpt_CoPro:
        j    Excpt_CoPro	   # Loop
20001ce8:	0800073a 00000000                       :.......

20001cf0 <Excpt_Break>:
        nop

	.globl Excpt_Break
Excpt_Break:
        j    Excpt_Break	   # Loop
20001cf0:	0800073c 00000000                       <.......

20001cf8 <InterruptHandler>:
        .ent InterruptHandler
        .set noat
        .set noreorder
InterruptHandler:
		/* Temporarily store the User Stack Pointer */
		move $k1, $sp
20001cf8:	03a0d821 	move	k1,sp

		/* Load the IRQ Stack Pointer */
		la $k0, IRQ_Stk_Base_Val
20001cfc:	3c1a4000 	lui	k0,0x4000
20001d00:	375a4000 	ori	k0,k0,0x4000
		move $sp, $k0
20001d04:	0340e821 	move	sp,k0

		/* Allocate stack space */
#ifndef FPU
		subu $sp, 120
20001d08:	27bdff88 	addiu	sp,sp,-120
#else
		subu $sp, 252
#endif

		/* Save all the key general purpose registers */
		sw $ra,   4($sp)
20001d0c:	afbf0004 	sw	ra,4(sp)
        sw $t9,   8($sp)
20001d10:	afb90008 	sw	t9,8(sp)
        sw $t8,  12($sp)
20001d14:	afb8000c 	sw	t8,12(sp)
        sw $s7,  16($sp)
20001d18:	afb70010 	sw	s7,16(sp)
        sw $s6,  20($sp)
20001d1c:	afb60014 	sw	s6,20(sp)
        sw $s5,  24($sp)
20001d20:	afb50018 	sw	s5,24(sp)
        sw $s4,  28($sp)
20001d24:	afb4001c 	sw	s4,28(sp)
        sw $s3,  32($sp)
20001d28:	afb30020 	sw	s3,32(sp)
        sw $s2,  36($sp)
20001d2c:	afb20024 	sw	s2,36(sp)
        sw $s1,  40($sp)
20001d30:	afb10028 	sw	s1,40(sp)
        sw $s0,  44($sp)
20001d34:	afb0002c 	sw	s0,44(sp)
        sw $t7,  48($sp)
20001d38:	afaf0030 	sw	t7,48(sp)
        sw $t6,  52($sp)
20001d3c:	afae0034 	sw	t6,52(sp)
        sw $t5,  56($sp)
20001d40:	afad0038 	sw	t5,56(sp)
        sw $t4,  60($sp)
20001d44:	afac003c 	sw	t4,60(sp)
        sw $t3,  64($sp)
20001d48:	afab0040 	sw	t3,64(sp)
        sw $t2,  68($sp)
20001d4c:	afaa0044 	sw	t2,68(sp)
        sw $t1,  72($sp)
20001d50:	afa90048 	sw	t1,72(sp)
        sw $t0,  76($sp)
20001d54:	afa8004c 	sw	t0,76(sp)
        sw $a3,  80($sp)
20001d58:	afa70050 	sw	a3,80(sp)
        sw $a2,  84($sp)
20001d5c:	afa60054 	sw	a2,84(sp)
        sw $a1,  88($sp)
20001d60:	afa50058 	sw	a1,88(sp)
        sw $a0,  92($sp)
20001d64:	afa4005c 	sw	a0,92(sp)
        sw $v1,  96($sp)
20001d68:	afa30060 	sw	v1,96(sp)
        sw $v0, 100($sp)
20001d6c:	afa20064 	sw	v0,100(sp)
        sw $at, 104($sp)
20001d70:	afa10068 	sw	at,104(sp)
        sw $k1, 108($sp)
20001d74:	afbb006c 	sw	k1,108(sp)
		swc1 $f31, 236($sp)
		sw $t1, 240($sp)
#endif

        /* Get the Return Address (EPC) */
        mfc0 $k0, $14
20001d78:	401a7000 	mfc0	k0,c0_epc

		/* Store the stack frame */
#ifndef FPU
		sw $fp, 112($sp)
20001d7c:	afbe0070 	sw	s8,112(sp)
		sw $k0, 116($sp)
20001d80:	afba0074 	sw	k0,116(sp)
#else
		sw $fp, 244($sp)
		sw $k0, 248($sp)
#endif
		move $fp,$sp
20001d84:	03a0f021 	move	s8,sp

		/* Clear pending interrupts */
		mfc0 $26,$13
20001d88:	401a6800 	mfc0	k0,c0_cause
        nop
20001d8c:	00000000 	nop
        li   $26,0xFF00
20001d90:	341aff00 	li	k0,0xff00
        mtc0 $26,$13
20001d94:	409a6800 	mtc0	k0,c0_cause

 		subu $sp, 24
20001d98:	27bdffe8 	addiu	sp,sp,-24

		/* Call C handler */
 		jal   Handle_Interrupts
20001d9c:	0c000a84 	jal	20002a10 <Handle_Interrupts>
        nop
20001da0:	00000000 	nop

        addu $sp, 24
20001da4:	27bd0018 	addiu	sp,sp,24
		lwc1 $f31, 236($sp)
		ctc1 $t0, $31
#endif

		/* Restore all the key general purpose registers */
		lw $ra,   4($sp)
20001da8:	8fbf0004 	lw	ra,4(sp)
        lw $t9,   8($sp)
20001dac:	8fb90008 	lw	t9,8(sp)
        lw $t8,  12($sp)
20001db0:	8fb8000c 	lw	t8,12(sp)
        lw $s7,  16($sp)
20001db4:	8fb70010 	lw	s7,16(sp)
        lw $s6,  20($sp)
20001db8:	8fb60014 	lw	s6,20(sp)
        lw $s5,  24($sp)
20001dbc:	8fb50018 	lw	s5,24(sp)
        lw $s4,  28($sp)
20001dc0:	8fb4001c 	lw	s4,28(sp)
        lw $s3,  32($sp)
20001dc4:	8fb30020 	lw	s3,32(sp)
        lw $s2,  36($sp)
20001dc8:	8fb20024 	lw	s2,36(sp)
        lw $s1,  40($sp)
20001dcc:	8fb10028 	lw	s1,40(sp)
        lw $s0,  44($sp)
20001dd0:	8fb0002c 	lw	s0,44(sp)
        lw $t7,  48($sp)
20001dd4:	8faf0030 	lw	t7,48(sp)
        lw $t6,  52($sp)
20001dd8:	8fae0034 	lw	t6,52(sp)
        lw $t5,  56($sp)
20001ddc:	8fad0038 	lw	t5,56(sp)
        lw $t4,  60($sp)
20001de0:	8fac003c 	lw	t4,60(sp)
        lw $t3,  64($sp)
20001de4:	8fab0040 	lw	t3,64(sp)
        lw $t2,  68($sp)
20001de8:	8faa0044 	lw	t2,68(sp)
        lw $t1,  72($sp)
20001dec:	8fa90048 	lw	t1,72(sp)
        lw $t0,  76($sp)
20001df0:	8fa8004c 	lw	t0,76(sp)
        lw $a3,  80($sp)
20001df4:	8fa70050 	lw	a3,80(sp)
        lw $a2,  84($sp)
20001df8:	8fa60054 	lw	a2,84(sp)
        lw $a1,  88($sp)
20001dfc:	8fa50058 	lw	a1,88(sp)
        lw $a0,  92($sp)
20001e00:	8fa4005c 	lw	a0,92(sp)
        lw $v1,  96($sp)
20001e04:	8fa30060 	lw	v1,96(sp)
        lw $v0, 100($sp)
20001e08:	8fa20064 	lw	v0,100(sp)
        lw $at, 104($sp)
20001e0c:	8fa10068 	lw	at,104(sp)
        lw $k0, 108($sp)
20001e10:	8fba006c 	lw	k0,108(sp)

#ifndef FPU
		/* Restore the stack frame */
		lw	$fp,112($sp)
20001e14:	8fbe0070 	lw	s8,112(sp)

        /* Get the Return Address (EPC) */
        lw $k1, 116($sp)
20001e18:	8fbb0074 	lw	k1,116(sp)
        
        /* Restore the stack pointer */
        addu $sp, 120
20001e1c:	27bd0078 	addiu	sp,sp,120

        /* Restore the stack pointer */
        addu $sp, 252
#endif
        /* Load the User Stack Pointer */
        move $sp, $k0
20001e20:	0340e821 	move	sp,k0

        /* Return from interrupt */
        j  $k1
20001e24:	03600008 	jr	k1

20001e28 <End_IRQ_Ptr>:
End_IRQ_Ptr:
        rfe
20001e28:	42000010                                ...B

20001e2c <Enable_Interrupts>:
	.global Enable_Interrupts
	.ent Enable_Interrupts

        .set noreorder
Enable_Interrupts:
        addiu   $29, $29, -24
20001e2c:	27bdffe8 	addiu	sp,sp,-24
        .frame $29, 24, $31
        sw   $8, 4($29)
20001e30:	afa80004 	sw	t0,4(sp)

        mfc0   $8, $12
20001e34:	40086000 	mfc0	t0,c0_sr
        nop
20001e38:	00000000 	nop
        ori   $8, $8, 0x01
20001e3c:	35080001 	ori	t0,t0,0x1
        nop
20001e40:	00000000 	nop
        mtc0   $8, $12
20001e44:	40886000 	mtc0	t0,c0_sr
        nop
20001e48:	00000000 	nop

        lw   $8, 4($29)
20001e4c:	8fa80004 	lw	t0,4(sp)
        addiu   $29, $29, 24
20001e50:	27bd0018 	addiu	sp,sp,24
        jr   $31
20001e54:	03e00008 	jr	ra
        nop
20001e58:	00000000 	nop

20001e5c <Disable_Interrupts>:
	.global Disable_Interrupts
	.ent Disable_Interrupts

    	.set noreorder
Disable_Interrupts:
        addiu   $29, $29, -24
20001e5c:	27bdffe8 	addiu	sp,sp,-24
        .frame $29, 24, $31
        sw   $8, 4($29)
20001e60:	afa80004 	sw	t0,4(sp)

        mfc0    $8, $12
20001e64:	40086000 	mfc0	t0,c0_sr
        lui     $9, 0xFFFF
20001e68:	3c09ffff 	lui	t1,0xffff
        ori     $9, 0xFFFE
20001e6c:	3529fffe 	ori	t1,t1,0xfffe
        nop
20001e70:	00000000 	nop
        and     $8, $8, $9
20001e74:	01094024 	and	t0,t0,t1
        nop
20001e78:	00000000 	nop
        mtc0   $8, $12
20001e7c:	40886000 	mtc0	t0,c0_sr
        nop
20001e80:	00000000 	nop

        lw   $8, 4($29)
20001e84:	8fa80004 	lw	t0,4(sp)
        addiu   $29, $29, 24
20001e88:	27bd0018 	addiu	sp,sp,24
        jr   $31
20001e8c:	03e00008 	jr	ra
        nop
20001e90:	00000000 	nop

20001e94 <Enter_Sleep_Mode>:
	.global Sleep_Ptr
	.ent Enter_Sleep_Mode

    	.set noreorder
Enter_Sleep_Mode:
        addiu   $29, $29, -24
20001e94:	27bdffe8 	addiu	sp,sp,-24
        .frame $29, 24, $31
        sw   $8, 4($29)
20001e98:	afa80004 	sw	t0,4(sp)

        mfc0   $8, $16
20001e9c:	40088000 	mfc0	t0,$16
        ori    $8, $8, 1
20001ea0:	35080001 	ori	t0,t0,0x1

20001ea4 <Sleep_Ptr>:
Sleep_Ptr:
        mtc0   $8, $16
20001ea4:	40888000 00000000 8fa80004 27bd0018     ...@...........'
        nop

        lw   $8, 4($29)
        addiu   $29, $29, 24
        jr   $31
20001eb4:	03e00008 00000000                       ........

20001ebc <LOG_Trigger_Breakpoint>:
	.section .text.LOG_Trigger_Breakpoint
	.global LOG_Trigger_Breakpoint
	.ent LOG_Trigger_Breakpoint
	
LOG_Trigger_Breakpoint:
	jr $31
20001ebc:	03e00008 	jr	ra
20001ec0:	00000000 	nop

20001ec4 <Scheduler_Tick>:

void Scheduler_Tick(void)
{
#if (Config_Hardware_Scheduler != TRUE)
#if (Config_Logging == TRUE)
	Log_Tick_Start(current_task);
20001ec4:	8f840008 	lw	a0,8(gp)

// Found in Scheduler_Tick, below.
extern void Hybrid_End_Label(void);

void Scheduler_Tick(void)
{
20001ec8:	27bdffd0 	addiu	sp,sp,-48
20001ecc:	afb60028 	sw	s6,40(sp)
20001ed0:	afb50024 	sw	s5,36(sp)
20001ed4:	afb40020 	sw	s4,32(sp)
20001ed8:	afb3001c 	sw	s3,28(sp)
20001edc:	afb20018 	sw	s2,24(sp)
20001ee0:	afb00010 	sw	s0,16(sp)
20001ee4:	afbf002c 	sw	ra,44(sp)
#if (Config_Hardware_Scheduler != TRUE)
#if (Config_Logging == TRUE)
	Log_Tick_Start(current_task);
20001ee8:	0c0009a1 	jal	20002684 <Log_Tick_Start>
20001eec:	afb10014 	sw	s1,20(sp)
#endif

	system_time += tick_skip_time;
20001ef0:	8f82000c 	lw	v0,12(gp)

	for (uint32_t i = 0; i < Config_Num_Tasks; i++)
	{
		Tasks[i].delay_counter -= tick_skip_time;
20001ef4:	3c124000 	lui	s2,0x4000
#if (Config_Hardware_Scheduler != TRUE)
#if (Config_Logging == TRUE)
	Log_Tick_Start(current_task);
#endif

	system_time += tick_skip_time;
20001ef8:	24420001 	addiu	v0,v0,1
#if (Config_Hybrid_Tasks == TRUE)
		if (Task_Ready(i, TRUE))
		{
			Tasks[i].delay_counter = Tasks[i].period_reload;
#if (Config_Logging == TRUE)
			Log_Set_Address(TRUE, (uint32_t) Tasks[i].task_function,
20001efc:	3c162000 	lui	s6,0x2000
	Log_Tick_Start(current_task);
#endif

	system_time += tick_skip_time;

	for (uint32_t i = 0; i < Config_Num_Tasks; i++)
20001f00:	00008021 	move	s0,zero
#if (Config_Hardware_Scheduler != TRUE)
#if (Config_Logging == TRUE)
	Log_Tick_Start(current_task);
#endif

	system_time += tick_skip_time;
20001f04:	af82000c 	sw	v0,12(gp)

	for (uint32_t i = 0; i < Config_Num_Tasks; i++)
	{
		Tasks[i].delay_counter -= tick_skip_time;
20001f08:	26520058 	addiu	s2,s2,88
#if (Config_Hybrid_Tasks == TRUE)
		if (Task_Ready(i, TRUE))
		{
			Tasks[i].delay_counter = Tasks[i].period_reload;
#if (Config_Logging == TRUE)
			Log_Set_Address(TRUE, (uint32_t) Tasks[i].task_function,
20001f0c:	26d61f98 	addiu	s6,s6,8088
	Log_Tick_Start(current_task);
#endif

	system_time += tick_skip_time;

	for (uint32_t i = 0; i < Config_Num_Tasks; i++)
20001f10:	8f95ffd8 	lw	s5,-40(gp)
	{
		Tasks[i].delay_counter -= tick_skip_time;
20001f14:	24140003 	li	s4,3
	Log_Tick_Start(current_task);
#endif

	system_time += tick_skip_time;

	for (uint32_t i = 0; i < Config_Num_Tasks; i++)
20001f18:	080007eb 	j	20001fac <Hybrid_End_Label+0x14>
20001f1c:	24130018 	li	s3,24
	{
		Tasks[i].delay_counter -= tick_skip_time;
20001f20:	00001012 	mflo	v0
20001f24:	24420001 	addiu	v0,v0,1
20001f28:	000210c0 	sll	v0,v0,0x3

static inline boolean_t Task_Ready(const uint32_t task_index,
								   TTE_UNUSED const boolean_t in_isr)
{
	// Avoid short-circuiting, to eliminate jitter.
	boolean_t ready = Tasks[task_index].task_function != NULL;
20001f2c:	02130018 	mult	s0,s3

	system_time += tick_skip_time;

	for (uint32_t i = 0; i < Config_Num_Tasks; i++)
	{
		Tasks[i].delay_counter -= tick_skip_time;
20001f30:	00521021 	addu	v0,v0,s2
20001f34:	8c430000 	lw	v1,0(v0)
20001f38:	00000000 	nop
20001f3c:	2463ffff 	addiu	v1,v1,-1
20001f40:	ac430000 	sw	v1,0(v0)

static inline boolean_t Task_Ready(const uint32_t task_index,
								   TTE_UNUSED const boolean_t in_isr)
{
	// Avoid short-circuiting, to eliminate jitter.
	boolean_t ready = Tasks[task_index].task_function != NULL;
20001f44:	00008812 	mflo	s1
20001f48:	02328821 	addu	s1,s1,s2
20001f4c:	8e250000 	lw	a1,0(s1)
	ready &= Tasks[task_index].delay_counter <= 0;
20001f50:	8c430000 	lw	v1,0(v0)
20001f54:	0005282b 	sltu	a1,zero,a1
20001f58:	28630001 	slti	v1,v1,1
#if (Config_Hybrid_Tasks == TRUE)
	ready &= Tasks[task_index].exec_from_isr == in_isr;
20001f5c:	92240014 	lbu	a0,20(s1)

	for (uint32_t i = 0; i < Config_Num_Tasks; i++)
	{
		Tasks[i].delay_counter -= tick_skip_time;
#if (Config_Hybrid_Tasks == TRUE)
		if (Task_Ready(i, TRUE))
20001f60:	00651824 	and	v1,v1,a1
20001f64:	00641824 	and	v1,v1,a0
20001f68:	1060000f 	beqz	v1,20001fa8 <Hybrid_End_Label+0x10>
20001f6c:	00000000 	nop
		{
			Tasks[i].delay_counter = Tasks[i].period_reload;
20001f70:	8e230004 	lw	v1,4(s1)
#if (Config_Logging == TRUE)
			Log_Set_Address(TRUE, (uint32_t) Tasks[i].task_function,
20001f74:	24040001 	li	a0,1
	{
		Tasks[i].delay_counter -= tick_skip_time;
#if (Config_Hybrid_Tasks == TRUE)
		if (Task_Ready(i, TRUE))
		{
			Tasks[i].delay_counter = Tasks[i].period_reload;
20001f78:	ac430000 	sw	v1,0(v0)
#if (Config_Logging == TRUE)
			Log_Set_Address(TRUE, (uint32_t) Tasks[i].task_function,
20001f7c:	8e250000 	lw	a1,0(s1)
20001f80:	0c00090c 	jal	20002430 <Log_Set_Address>
20001f84:	02c03021 	move	a2,s6
							(uint32_t) Hybrid_End_Label);
#endif

			(*Tasks[i].task_function)();
20001f88:	8e220000 	lw	v0,0(s1)
20001f8c:	00000000 	nop
20001f90:	0040f809 	jalr	v0
20001f94:	00000000 	nop

20001f98 <Hybrid_End_Label>:

			__asm__ volatile(".global Hybrid_End_Label");
			__asm__ volatile("Hybrid_End_Label:");

#if (Config_Logging == TRUE)
			Log_Hybrid_Start(i);
20001f98:	0c0009cb 02002021 0c0009bf 02002021     ....! ......! ..
	Log_Tick_Start(current_task);
#endif

	system_time += tick_skip_time;

	for (uint32_t i = 0; i < Config_Num_Tasks; i++)
20001fa8:	26100001 0215102b 1440ffdb 02140018     ...&+.....@.....
		}
#endif
	}

#if (Config_Logging == TRUE)
	Log_Reset_Addresses();
20001fb8:	0c0008f2 00000000 8f840008 8fbf002c     ............,...
	tick_skip_time = Next_Tick();
	Timer_Set_Match(Config_Scheduler_Timer_Number,
			tick_skip_time * single_tick_time);
#endif
#endif
}
20001fc8:	8fb60028 8fb50024 8fb40020 8fb3001c     (...$... .......
20001fd8:	8fb20018 8fb10014 8fb00010 08000a5c     ............\...
#endif
	}

#if (Config_Logging == TRUE)
	Log_Reset_Addresses();
	Log_Tick_End(current_task);
20001fe8:	27bd0030                                0..'

20001fec <Scheduler_Dispatch>:

// Found in Scheduler_Dispatch, below.
extern void Task_End_Label(void);

void Scheduler_Dispatch(void)
{
20001fec:	27bdffd0 	addiu	sp,sp,-48
20001ff0:	afb60028 	sw	s6,40(sp)
20001ff4:	afb3001c 	sw	s3,28(sp)
		{
			if (Task_Ready(i, FALSE))
			{
				Tasks[i].delay_counter = Tasks[i].period_reload;
#if (Config_Logging == TRUE)
				Log_Set_Address(FALSE, (uint32_t) Tasks[i].task_function,
20001ff8:	3c162000 	lui	s6,0x2000

static inline boolean_t Task_Ready(const uint32_t task_index,
								   TTE_UNUSED const boolean_t in_isr)
{
	// Avoid short-circuiting, to eliminate jitter.
	boolean_t ready = Tasks[task_index].task_function != NULL;
20001ffc:	3c134000 	lui	s3,0x4000

// Found in Scheduler_Dispatch, below.
extern void Task_End_Label(void);

void Scheduler_Dispatch(void)
{
20002000:	afb50024 	sw	s5,36(sp)
20002004:	afb40020 	sw	s4,32(sp)
20002008:	afb20018 	sw	s2,24(sp)
2000200c:	afbf002c 	sw	ra,44(sp)
20002010:	afb10014 	sw	s1,20(sp)
20002014:	afb00010 	sw	s0,16(sp)
#if (Config_Hardware_Scheduler != TRUE)
	Disable_Interrupt();
20002018:	0c000a94 	jal	20002a50 <Disable_Interrupt>
2000201c:	26730058 	addiu	s3,s3,88
		{
			if (Task_Ready(i, FALSE))
			{
				Tasks[i].delay_counter = Tasks[i].period_reload;
#if (Config_Logging == TRUE)
				Log_Set_Address(FALSE, (uint32_t) Tasks[i].task_function,
20002020:	26d620ac 	addiu	s6,s6,8364
{
#if (Config_Hardware_Scheduler != TRUE)
	Disable_Interrupt();
	while (Update_Required())
	{
		for (uint32_t i = 0; i < Config_Num_Tasks; i++)
20002024:	8f92ffd8 	lw	s2,-40(gp)

static inline boolean_t Task_Ready(const uint32_t task_index,
								   TTE_UNUSED const boolean_t in_isr)
{
	// Avoid short-circuiting, to eliminate jitter.
	boolean_t ready = Tasks[task_index].task_function != NULL;
20002028:	24150018 	li	s5,24

void Scheduler_Dispatch(void)
{
#if (Config_Hardware_Scheduler != TRUE)
	Disable_Interrupt();
	while (Update_Required())
2000202c:	08000836 	j	200020d8 <Task_End_Label+0x2c>
20002030:	24140003 	li	s4,3
static inline boolean_t Task_Ready(const uint32_t task_index,
								   TTE_UNUSED const boolean_t in_isr)
{
	// Avoid short-circuiting, to eliminate jitter.
	boolean_t ready = Tasks[task_index].task_function != NULL;
	ready &= Tasks[task_index].delay_counter <= 0;
20002034:	00001012 	mflo	v0
20002038:	24420001 	addiu	v0,v0,1
2000203c:	000210c0 	sll	v0,v0,0x3

static inline boolean_t Task_Ready(const uint32_t task_index,
								   TTE_UNUSED const boolean_t in_isr)
{
	// Avoid short-circuiting, to eliminate jitter.
	boolean_t ready = Tasks[task_index].task_function != NULL;
20002040:	02150018 	mult	s0,s5
	ready &= Tasks[task_index].delay_counter <= 0;
20002044:	00531021 	addu	v0,v0,s3

static inline boolean_t Task_Ready(const uint32_t task_index,
								   TTE_UNUSED const boolean_t in_isr)
{
	// Avoid short-circuiting, to eliminate jitter.
	boolean_t ready = Tasks[task_index].task_function != NULL;
20002048:	00008812 	mflo	s1
2000204c:	02338821 	addu	s1,s1,s3
20002050:	8e230000 	lw	v1,0(s1)
	ready &= Tasks[task_index].delay_counter <= 0;
20002054:	8c450000 	lw	a1,0(v0)
#if (Config_Hybrid_Tasks == TRUE)
	ready &= Tasks[task_index].exec_from_isr == in_isr;
20002058:	92240014 	lbu	a0,20(s1)
static inline boolean_t Task_Ready(const uint32_t task_index,
								   TTE_UNUSED const boolean_t in_isr)
{
	// Avoid short-circuiting, to eliminate jitter.
	boolean_t ready = Tasks[task_index].task_function != NULL;
	ready &= Tasks[task_index].delay_counter <= 0;
2000205c:	28a50001 	slti	a1,a1,1
20002060:	0003182b 	sltu	v1,zero,v1
	Disable_Interrupt();
	while (Update_Required())
	{
		for (uint32_t i = 0; i < Config_Num_Tasks; i++)
		{
			if (Task_Ready(i, FALSE))
20002064:	00a31824 	and	v1,a1,v1
20002068:	2c840001 	sltiu	a0,a0,1
2000206c:	00641824 	and	v1,v1,a0
20002070:	10600015 	beqz	v1,200020c8 <Task_End_Label+0x1c>
20002074:	00000000 	nop
			{
				Tasks[i].delay_counter = Tasks[i].period_reload;
20002078:	8e230004 	lw	v1,4(s1)
#if (Config_Logging == TRUE)
				Log_Set_Address(FALSE, (uint32_t) Tasks[i].task_function,
2000207c:	00002021 	move	a0,zero
	{
		for (uint32_t i = 0; i < Config_Num_Tasks; i++)
		{
			if (Task_Ready(i, FALSE))
			{
				Tasks[i].delay_counter = Tasks[i].period_reload;
20002080:	ac430000 	sw	v1,0(v0)
#if (Config_Logging == TRUE)
				Log_Set_Address(FALSE, (uint32_t) Tasks[i].task_function,
20002084:	8e250000 	lw	a1,0(s1)
20002088:	0c00090c 	jal	20002430 <Log_Set_Address>
2000208c:	02c03021 	move	a2,s6
								(uint32_t) Task_End_Label);
#endif

				current_task = i;
20002090:	af900008 	sw	s0,8(gp)
				Enable_Interrupt();
20002094:	0c000a86 	jal	20002a18 <Enable_Interrupt>
20002098:	00000000 	nop

				(*Tasks[i].task_function)();
2000209c:	8e220000 	lw	v0,0(s1)
200020a0:	00000000 	nop
200020a4:	0040f809 	jalr	v0
200020a8:	00000000 	nop

200020ac <Task_End_Label>:

				__asm__ volatile(".global Task_End_Label");
				__asm__ volatile("Task_End_Label:");

				Disable_Interrupt();
200020ac:	0c000a94 00000000 02002021 0c000a13     ........! ......
				current_task = Config_Num_Tasks;

#if (Config_Logging == TRUE)
				Log_Task_Start(i);
200020bc:	af920008 0c000a07 02002021 26100001     ........! .....&
{
#if (Config_Hardware_Scheduler != TRUE)
	Disable_Interrupt();
	while (Update_Required())
	{
		for (uint32_t i = 0; i < Config_Num_Tasks; i++)
200020cc:	0212102b 1440ffd8 02140018 0c000a94     +.....@.........

static inline boolean_t Update_Required(void)
{
	boolean_t update = FALSE;

	Disable_Interrupt();
200020dc:	00000000 8f82000c 00000000 10400005     ..............@.
	if (system_time > 0)
200020ec:	00008021 8f82000c 24100001 2442ffff     !..........$..B$
	{
		update = TRUE;
		system_time--;
200020fc:	af82000c 0c000a86 00000000 1600fff0     ................

void Scheduler_Dispatch(void)
{
#if (Config_Hardware_Scheduler != TRUE)
	Disable_Interrupt();
	while (Update_Required())
2000210c:	00008021 0c000902 00000000 0c000a86     !...............

#if (Config_Logging == TRUE)
	Log_Idle();
#endif

	Enable_Interrupt();
2000211c:	00000000 8fbf002c 8fb60028 8fb50024     ....,...(...$...
	Enter_Sleep_Mode();
#endif
}
2000212c:	8fb40020 8fb3001c 8fb20018 8fb10014      ...............
2000213c:	8fb00010 080007a5 27bd0030              ........0..'

20002148 <Shutdown_System>:

// Found in the startup.strt assembly file.
extern void Enter_Sleep_Mode(void);

void Shutdown_System(void)
{
20002148:	27bdffe8 	addiu	sp,sp,-24
2000214c:	afbf0014 	sw	ra,20(sp)
#if (Config_Hardware_Scheduler == TRUE)
	hwsch_register[0].enable = 0;
#endif

	Disable_Interrupt();
20002150:	0c000a94 	jal	20002a50 <Disable_Interrupt>
20002154:	00000000 	nop
	Enter_Sleep_Mode();
}
20002158:	8fbf0014 	lw	ra,20(sp)
#if (Config_Hardware_Scheduler == TRUE)
	hwsch_register[0].enable = 0;
#endif

	Disable_Interrupt();
	Enter_Sleep_Mode();
2000215c:	080007a5 	j	20001e94 <Enter_Sleep_Mode>
20002160:	27bd0018 	addiu	sp,sp,24

20002164 <Scheduler_Start>:
}

///////////////////////////////////////////////////////////////////////////////

void Scheduler_Start(void)
{
20002164:	27bdffe8 	addiu	sp,sp,-24
20002168:	afbf0014 	sw	ra,20(sp)
#if (Config_Logging == TRUE && Config_Hardware_Scheduler != TRUE)
	Log_Init();
2000216c:	0c000a1f 	jal	2000287c <Log_Init>
20002170:	00000000 	nop
		tmrbuf_register[1] = (Config_Log_Buffer_Size / 8) - 1;
	}
	tmrbuf_register[2] = Config_Log_Num_Ticks;
#endif
#else
	Enable_Interrupt();
20002174:	0c000a86 	jal	20002a18 <Enable_Interrupt>
20002178:	00000000 	nop
#endif

	Timer_Start(Config_Scheduler_Timer_Number);
}
2000217c:	8fbf0014 	lw	ra,20(sp)
#endif
#else
	Enable_Interrupt();
#endif

	Timer_Start(Config_Scheduler_Timer_Number);
20002180:	00002021 	move	a0,zero
20002184:	08000ace 	j	20002b38 <Timer_Start>
20002188:	27bd0018 	addiu	sp,sp,24

2000218c <Scheduler_Init>:

///////////////////////////////////////////////////////////////////////////////

void Scheduler_Init(const uint32_t tick_us)
{
	single_tick_time = Timer_Init(Config_Scheduler_Timer_Number, tick_us,
2000218c:	3c0602fa 	lui	a2,0x2fa
20002190:	00802821 	move	a1,a0
#endif

///////////////////////////////////////////////////////////////////////////////

void Scheduler_Init(const uint32_t tick_us)
{
20002194:	27bdffe8 	addiu	sp,sp,-24
	single_tick_time = Timer_Init(Config_Scheduler_Timer_Number, tick_us,
20002198:	00002021 	move	a0,zero
2000219c:	34c6f080 	ori	a2,a2,0xf080
#endif

///////////////////////////////////////////////////////////////////////////////

void Scheduler_Init(const uint32_t tick_us)
{
200021a0:	afbf0014 	sw	ra,20(sp)
	single_tick_time = Timer_Init(Config_Scheduler_Timer_Number, tick_us,
200021a4:	0c000a9e 	jal	20002a78 <Timer_Init>
200021a8:	24070001 	li	a3,1
		}
		hwsch_register[i].bvector = (uint32_t) Tasks[i].recovery_task;
		hwsch_register[i].aot = gpt - 1;
	}
#else
	Init_Interrupt();
200021ac:	0c000a7b 	jal	200029ec <Init_Interrupt>
200021b0:	af820010 	sw	v0,16(gp)
	current_task = Config_Num_Tasks;
200021b4:	8f83ffd8 	lw	v1,-40(gp)
	for (uint32_t i = 0; i < Config_Num_Tasks; i++)
	{
		Tasks[i].delay_counter++;
200021b8:	3c054000 	lui	a1,0x4000
		hwsch_register[i].bvector = (uint32_t) Tasks[i].recovery_task;
		hwsch_register[i].aot = gpt - 1;
	}
#else
	Init_Interrupt();
	current_task = Config_Num_Tasks;
200021bc:	af830008 	sw	v1,8(gp)
	for (uint32_t i = 0; i < Config_Num_Tasks; i++)
	{
		Tasks[i].delay_counter++;
200021c0:	24a50058 	addiu	a1,a1,88
		hwsch_register[i].bvector = (uint32_t) Tasks[i].recovery_task;
		hwsch_register[i].aot = gpt - 1;
	}
#else
	Init_Interrupt();
	current_task = Config_Num_Tasks;
200021c4:	00001021 	move	v0,zero
	for (uint32_t i = 0; i < Config_Num_Tasks; i++)
200021c8:	0800087d 	j	200021f4 <Scheduler_Init+0x68>
200021cc:	24040003 	li	a0,3
200021d0:	24420001 	addiu	v0,v0,1
	{
		Tasks[i].delay_counter++;
200021d4:	00003012 	mflo	a2
200021d8:	24c60001 	addiu	a2,a2,1
200021dc:	000630c0 	sll	a2,a2,0x3
200021e0:	00c53021 	addu	a2,a2,a1
200021e4:	8cc70000 	lw	a3,0(a2)
200021e8:	00000000 	nop
200021ec:	24e70001 	addiu	a3,a3,1
200021f0:	acc70000 	sw	a3,0(a2)
		hwsch_register[i].aot = gpt - 1;
	}
#else
	Init_Interrupt();
	current_task = Config_Num_Tasks;
	for (uint32_t i = 0; i < Config_Num_Tasks; i++)
200021f4:	0043302b 	sltu	a2,v0,v1
200021f8:	14c0fff5 	bnez	a2,200021d0 <Scheduler_Init+0x44>
200021fc:	00440018 	mult	v0,a0
	{
		Tasks[i].delay_counter++;
	}
#endif
}
20002200:	8fbf0014 	lw	ra,20(sp)
20002204:	00000000 	nop
20002208:	03e00008 	jr	ra
2000220c:	27bd0018 	addiu	sp,sp,24

20002210 <Write_32>:

///////////////////////////////////////////////////////////////////////////////

void Write_32(const uint32_t value)
{
	Log_Buffer[buffer_index++] = (uint8_t) (value >> 24);
20002210:	8f820024 	lw	v0,36(gp)
20002214:	3c034000 	lui	v1,0x4000
20002218:	246305e8 	addiu	v1,v1,1512
2000221c:	24450001 	addiu	a1,v0,1
20002220:	00043602 	srl	a2,a0,0x18
20002224:	00431021 	addu	v0,v0,v1
20002228:	a0460000 	sb	a2,0(v0)
2000222c:	af850024 	sw	a1,36(gp)
	Log_Buffer[buffer_index++] = (uint8_t) (value >> 16);
20002230:	8f820024 	lw	v0,36(gp)
20002234:	00043402 	srl	a2,a0,0x10
20002238:	24450001 	addiu	a1,v0,1
2000223c:	30c600ff 	andi	a2,a2,0xff
20002240:	00431021 	addu	v0,v0,v1
20002244:	a0460000 	sb	a2,0(v0)
20002248:	af850024 	sw	a1,36(gp)
	Log_Buffer[buffer_index++] = (uint8_t) (value >> 8);
2000224c:	8f820024 	lw	v0,36(gp)
20002250:	00043202 	srl	a2,a0,0x8
20002254:	24450001 	addiu	a1,v0,1
20002258:	30c600ff 	andi	a2,a2,0xff
2000225c:	00431021 	addu	v0,v0,v1
20002260:	a0460000 	sb	a2,0(v0)
20002264:	af850024 	sw	a1,36(gp)
	Log_Buffer[buffer_index++] = (uint8_t) value;
20002268:	8f820024 	lw	v0,36(gp)
2000226c:	308400ff 	andi	a0,a0,0xff
20002270:	00431821 	addu	v1,v0,v1
20002274:	24420001 	addiu	v0,v0,1
20002278:	a0640000 	sb	a0,0(v1)
2000227c:	af820024 	sw	v0,36(gp)
}
20002280:	03e00008 	jr	ra
20002284:	00000000 	nop

20002288 <Set_Watch>:

///////////////////////////////////////////////////////////////////////////////

void Set_Watch(const uint8_t number, const uint32_t value)
{
20002288:	308400ff 	andi	a0,a0,0xff
	switch (number)
2000228c:	24020002 	li	v0,2
20002290:	10820017 	beq	a0,v0,200022f0 <Set_Watch+0x68>
20002294:	2c820003 	sltiu	v0,a0,3
20002298:	10400007 	beqz	v0,200022b8 <Set_Watch+0x30>
2000229c:	24020004 	li	v0,4
200022a0:	1080000d 	beqz	a0,200022d8 <Set_Watch+0x50>
200022a4:	24020001 	li	v0,1
200022a8:	1482001b 	bne	a0,v0,20002318 <Set_Watch+0x90>
200022ac:	00000000 	nop
200022b0:	080008b9 	j	200022e4 <Set_Watch+0x5c>
200022b4:	00000000 	nop
200022b8:	10820013 	beq	a0,v0,20002308 <Set_Watch+0x80>
200022bc:	2c820004 	sltiu	v0,a0,4
200022c0:	1440000e 	bnez	v0,200022fc <Set_Watch+0x74>
200022c4:	24020005 	li	v0,5
200022c8:	14820013 	bne	a0,v0,20002318 <Set_Watch+0x90>
200022cc:	00000000 	nop
200022d0:	080008c5 	j	20002314 <Set_Watch+0x8c>
200022d4:	00000000 	nop
	{
	case 0:
		__asm__ volatile ("mtc0 %0, $18"::"r"(value));
200022d8:	40859000 	mtc0	a1,$18
		break;
200022dc:	03e00008 	jr	ra
200022e0:	00000000 	nop
	case 1:
		__asm__ volatile ("mtc0 %0, $19"::"r"(value));
200022e4:	40859800 	mtc0	a1,$19
		break;
200022e8:	03e00008 	jr	ra
200022ec:	00000000 	nop
	case 2:
		__asm__ volatile ("mtc0 %0, $20"::"r"(value));
200022f0:	4085a000 	mtc0	a1,$20
		break;
200022f4:	03e00008 	jr	ra
200022f8:	00000000 	nop
	case 3:
		__asm__ volatile ("mtc0 %0, $21"::"r"(value));
200022fc:	4085a800 	mtc0	a1,$21
		break;
20002300:	03e00008 	jr	ra
20002304:	00000000 	nop
	case 4:
		__asm__ volatile ("mtc0 %0, $22"::"r"(value));
20002308:	4085b000 	mtc0	a1,$22
		break;
2000230c:	03e00008 	jr	ra
20002310:	00000000 	nop
	case 5:
		__asm__ volatile ("mtc0 %0, $23"::"r"(value));
20002314:	4085b800 	mtc0	a1,$23
20002318:	03e00008 	jr	ra
2000231c:	00000000 	nop

20002320 <Get_Watch>:
}

///////////////////////////////////////////////////////////////////////////////

uint32_t Get_Watch(const uint8_t number)
{
20002320:	308400ff 	andi	a0,a0,0xff
	uint32_t value = 0;

	switch (number)
20002324:	24020002 	li	v0,2
20002328:	1082001b 	beq	a0,v0,20002398 <Get_Watch+0x78>
2000232c:	00000000 	nop
20002330:	2c820003 	sltiu	v0,a0,3
20002334:	10400008 	beqz	v0,20002358 <Get_Watch+0x38>
20002338:	24020004 	li	v0,4
2000233c:	10800010 	beqz	a0,20002380 <Get_Watch+0x60>
20002340:	00000000 	nop
20002344:	24020001 	li	v0,1
20002348:	1482000b 	bne	a0,v0,20002378 <Get_Watch+0x58>
2000234c:	00000000 	nop
20002350:	080008e3 	j	2000238c <Get_Watch+0x6c>
20002354:	00000000 	nop
20002358:	10820015 	beq	a0,v0,200023b0 <Get_Watch+0x90>
2000235c:	00000000 	nop
20002360:	2c820004 	sltiu	v0,a0,4
20002364:	1440000f 	bnez	v0,200023a4 <Get_Watch+0x84>
20002368:	00000000 	nop
2000236c:	24020005 	li	v0,5
20002370:	10820012 	beq	a0,v0,200023bc <Get_Watch+0x9c>
20002374:	00000000 	nop
20002378:	03e00008 	jr	ra
2000237c:	00001021 	move	v0,zero
	{
	case 0:
		__asm__ volatile ("mfc0 %0, $18":"=r"(value));
20002380:	40029000 	mfc0	v0,$18
		break;
20002384:	03e00008 	jr	ra
20002388:	00000000 	nop
	case 1:
		__asm__ volatile ("mfc0 %0, $19":"=r"(value));
2000238c:	40029800 	mfc0	v0,$19
		break;
20002390:	03e00008 	jr	ra
20002394:	00000000 	nop
	case 2:
		__asm__ volatile ("mfc0 %0, $20":"=r"(value));
20002398:	4002a000 	mfc0	v0,$20
		break;
2000239c:	03e00008 	jr	ra
200023a0:	00000000 	nop
	case 3:
		__asm__ volatile ("mfc0 %0, $21":"=r"(value));
200023a4:	4002a800 	mfc0	v0,$21
		break;
200023a8:	03e00008 	jr	ra
200023ac:	00000000 	nop
	case 4:
		__asm__ volatile ("mfc0 %0, $22":"=r"(value));
200023b0:	4002b000 	mfc0	v0,$22
		break;
200023b4:	03e00008 	jr	ra
200023b8:	00000000 	nop
	case 5:
		__asm__ volatile ("mfc0 %0, $23":"=r"(value));
200023bc:	4002b800 	mfc0	v0,$23
	default:
		value = 0;
	}

	return value;
}
200023c0:	03e00008 	jr	ra
200023c4:	00000000 	nop

200023c8 <Log_Reset_Addresses>:
extern void End_IRQ_Ptr(void);
extern void Sleep_Ptr(void);

void Log_Reset_Addresses(void)
{
	Set_Watch(0, 0x20000008);
200023c8:	3c052000 	lui	a1,0x2000
// Found in the startup.strt assembly file.
extern void End_IRQ_Ptr(void);
extern void Sleep_Ptr(void);

void Log_Reset_Addresses(void)
{
200023cc:	27bdffe8 	addiu	sp,sp,-24
	Set_Watch(0, 0x20000008);
200023d0:	34a50008 	ori	a1,a1,0x8
// Found in the startup.strt assembly file.
extern void End_IRQ_Ptr(void);
extern void Sleep_Ptr(void);

void Log_Reset_Addresses(void)
{
200023d4:	afbf0014 	sw	ra,20(sp)
	Set_Watch(0, 0x20000008);
200023d8:	0c0008a2 	jal	20002288 <Set_Watch>
200023dc:	00002021 	move	a0,zero
	Set_Watch(1, (uint32_t) End_IRQ_Ptr);
200023e0:	3c052000 	lui	a1,0x2000
200023e4:	24a51e28 	addiu	a1,a1,7720
200023e8:	0c0008a2 	jal	20002288 <Set_Watch>
200023ec:	24040001 	li	a0,1
	Set_Watch(4, (uint32_t) Sleep_Ptr);
200023f0:	3c052000 	lui	a1,0x2000
}
200023f4:	8fbf0014 	lw	ra,20(sp)

void Log_Reset_Addresses(void)
{
	Set_Watch(0, 0x20000008);
	Set_Watch(1, (uint32_t) End_IRQ_Ptr);
	Set_Watch(4, (uint32_t) Sleep_Ptr);
200023f8:	24a51ea4 	addiu	a1,a1,7844
200023fc:	24040004 	li	a0,4
20002400:	080008a2 	j	20002288 <Set_Watch>
20002404:	27bd0018 	addiu	sp,sp,24

20002408 <Log_Idle>:
}

///////////////////////////////////////////////////////////////////////////////

void Log_Idle(void)
{
20002408:	27bdffe8 	addiu	sp,sp,-24
2000240c:	afbf0014 	sw	ra,20(sp)
	Disable_Interrupt();
20002410:	0c000a94 	jal	20002a50 <Disable_Interrupt>
20002414:	00000000 	nop
	idle_index = Config_Num_Tasks;
20002418:	8f82ffd8 	lw	v0,-40(gp)
	Enable_Interrupt();
}
2000241c:	8fbf0014 	lw	ra,20(sp)
20002420:	27bd0018 	addiu	sp,sp,24
///////////////////////////////////////////////////////////////////////////////

void Log_Idle(void)
{
	Disable_Interrupt();
	idle_index = Config_Num_Tasks;
20002424:	af82fff4 	sw	v0,-12(gp)
	Enable_Interrupt();
20002428:	08000a86 	j	20002a18 <Enable_Interrupt>
2000242c:	00000000 	nop

20002430 <Log_Set_Address>:

///////////////////////////////////////////////////////////////////////////////

void Log_Set_Address(const boolean_t in_isr, const uint32_t start,
					 const uint32_t finish)
{
20002430:	27bdffe0 	addiu	sp,sp,-32
	idle_index = UINT8_MAX;
20002434:	240200ff 	li	v0,255

///////////////////////////////////////////////////////////////////////////////

void Log_Set_Address(const boolean_t in_isr, const uint32_t start,
					 const uint32_t finish)
{
20002438:	308400ff 	andi	a0,a0,0xff
2000243c:	afb10018 	sw	s1,24(sp)
20002440:	afb00014 	sw	s0,20(sp)
20002444:	afbf001c 	sw	ra,28(sp)
	idle_index = UINT8_MAX;
20002448:	af82fff4 	sw	v0,-12(gp)

///////////////////////////////////////////////////////////////////////////////

void Log_Set_Address(const boolean_t in_isr, const uint32_t start,
					 const uint32_t finish)
{
2000244c:	00c08021 	move	s0,a2
	idle_index = UINT8_MAX;
	if (in_isr)
20002450:	1080000a 	beqz	a0,2000247c <Log_Set_Address+0x4c>
20002454:	00a08821 	move	s1,a1
	{
		Set_Watch(1, start);
20002458:	0c0008a2 	jal	20002288 <Set_Watch>
2000245c:	24040001 	li	a0,1
		Set_Watch(0, finish);
20002460:	02002821 	move	a1,s0
		Disable_Interrupt();
		Set_Watch(2, start);
		Set_Watch(3, finish);
		Enable_Interrupt();
	}
}
20002464:	8fbf001c 	lw	ra,28(sp)
20002468:	8fb10018 	lw	s1,24(sp)
2000246c:	8fb00014 	lw	s0,20(sp)
{
	idle_index = UINT8_MAX;
	if (in_isr)
	{
		Set_Watch(1, start);
		Set_Watch(0, finish);
20002470:	00002021 	move	a0,zero
20002474:	080008a2 	j	20002288 <Set_Watch>
20002478:	27bd0020 	addiu	sp,sp,32
	}
	else
	{
		Disable_Interrupt();
2000247c:	0c000a94 	jal	20002a50 <Disable_Interrupt>
20002480:	00000000 	nop
		Set_Watch(2, start);
20002484:	02202821 	move	a1,s1
20002488:	0c0008a2 	jal	20002288 <Set_Watch>
2000248c:	24040002 	li	a0,2
		Set_Watch(3, finish);
20002490:	02002821 	move	a1,s0
20002494:	0c0008a2 	jal	20002288 <Set_Watch>
20002498:	24040003 	li	a0,3
		Enable_Interrupt();
	}
}
2000249c:	8fbf001c 	lw	ra,28(sp)
200024a0:	8fb10018 	lw	s1,24(sp)
200024a4:	8fb00014 	lw	s0,20(sp)
	else
	{
		Disable_Interrupt();
		Set_Watch(2, start);
		Set_Watch(3, finish);
		Enable_Interrupt();
200024a8:	08000a86 	j	20002a18 <Enable_Interrupt>
200024ac:	27bd0020 	addiu	sp,sp,32

200024b0 <Check_Buffer>:
// Found in the startup.strt assembly file.
extern void LOG_Trigger_Breakpoint(void);

void Check_Buffer(const uint32_t size)
{
	if (Config_Log_Buffer_Size - buffer_index < size + 1)
200024b0:	8f820024 	lw	v0,36(gp)
200024b4:	240303e8 	li	v1,1000
200024b8:	00621023 	subu	v0,v1,v0
200024bc:	24840001 	addiu	a0,a0,1

// Found in the startup.strt assembly file.
extern void LOG_Trigger_Breakpoint(void);

void Check_Buffer(const uint32_t size)
{
200024c0:	27bdffe8 	addiu	sp,sp,-24
	if (Config_Log_Buffer_Size - buffer_index < size + 1)
200024c4:	0044102b 	sltu	v0,v0,a0
200024c8:	1040000a 	beqz	v0,200024f4 <Check_Buffer+0x44>
200024cc:	afbf0014 	sw	ra,20(sp)
	{
		Log_Buffer[buffer_index] = 'z';
200024d0:	8f830024 	lw	v1,36(gp)
200024d4:	3c024000 	lui	v0,0x4000
200024d8:	244205e8 	addiu	v0,v0,1512
200024dc:	00621021 	addu	v0,v1,v0
200024e0:	2403007a 	li	v1,122
200024e4:	a0430000 	sb	v1,0(v0)
		LOG_Trigger_Breakpoint();
200024e8:	0c0007af 	jal	20001ebc <LOG_Trigger_Breakpoint>
200024ec:	00000000 	nop
		buffer_index = 0;
200024f0:	af800024 	sw	zero,36(gp)
	}
}
200024f4:	8fbf0014 	lw	ra,20(sp)
200024f8:	00000000 	nop
200024fc:	03e00008 	jr	ra
20002500:	27bd0018 	addiu	sp,sp,24

20002504 <Log_Task_Address>:
}

///////////////////////////////////////////////////////////////////////////////

void Log_Task_Address(const task_function_t task, const uint8_t priority)
{
20002504:	27bdffe0 	addiu	sp,sp,-32
20002508:	afb00010 	sw	s0,16(sp)
2000250c:	00808021 	move	s0,a0
	Check_Buffer(7);
20002510:	24040007 	li	a0,7
}

///////////////////////////////////////////////////////////////////////////////

void Log_Task_Address(const task_function_t task, const uint8_t priority)
{
20002514:	afbf001c 	sw	ra,28(sp)
20002518:	afb20018 	sw	s2,24(sp)
2000251c:	afb10014 	sw	s1,20(sp)
20002520:	30b200ff 	andi	s2,a1,0xff
	Check_Buffer(7);
20002524:	0c00092c 	jal	200024b0 <Check_Buffer>
20002528:	3c114000 	lui	s1,0x4000

///////////////////////////////////////////////////////////////////////////////

void Write_8(const uint8_t value)
{
	Log_Buffer[buffer_index++] = value;
2000252c:	8f820024 	lw	v0,36(gp)
20002530:	263105e8 	addiu	s1,s1,1512
20002534:	24430001 	addiu	v1,v0,1
20002538:	24050058 	li	a1,88
2000253c:	00511021 	addu	v0,v0,s1

void Log_Task_Address(const task_function_t task, const uint8_t priority)
{
	Check_Buffer(7);
	Write_8('X');
	Write_32((uint32_t) task);
20002540:	02002021 	move	a0,s0

///////////////////////////////////////////////////////////////////////////////

void Write_8(const uint8_t value)
{
	Log_Buffer[buffer_index++] = value;
20002544:	a0450000 	sb	a1,0(v0)
20002548:	af830024 	sw	v1,36(gp)

void Log_Task_Address(const task_function_t task, const uint8_t priority)
{
	Check_Buffer(7);
	Write_8('X');
	Write_32((uint32_t) task);
2000254c:	0c000884 	jal	20002210 <Write_32>
20002550:	00000000 	nop

///////////////////////////////////////////////////////////////////////////////

void Write_8(const uint8_t value)
{
	Log_Buffer[buffer_index++] = value;
20002554:	8f820024 	lw	v0,36(gp)
20002558:	24040070 	li	a0,112
2000255c:	24430001 	addiu	v1,v0,1
20002560:	00511021 	addu	v0,v0,s1
20002564:	a0440000 	sb	a0,0(v0)
20002568:	af830024 	sw	v1,36(gp)
2000256c:	8f820024 	lw	v0,36(gp)
20002570:	00000000 	nop
20002574:	00518821 	addu	s1,v0,s1
20002578:	a2320000 	sb	s2,0(s1)
	Check_Buffer(7);
	Write_8('X');
	Write_32((uint32_t) task);
	Write_8('p');
	Write_8(priority);
}
2000257c:	8fbf001c 	lw	ra,28(sp)

///////////////////////////////////////////////////////////////////////////////

void Write_8(const uint8_t value)
{
	Log_Buffer[buffer_index++] = value;
20002580:	24420001 	addiu	v0,v0,1
	Check_Buffer(7);
	Write_8('X');
	Write_32((uint32_t) task);
	Write_8('p');
	Write_8(priority);
}
20002584:	8fb20018 	lw	s2,24(sp)
20002588:	8fb10014 	lw	s1,20(sp)
2000258c:	8fb00010 	lw	s0,16(sp)

///////////////////////////////////////////////////////////////////////////////

void Write_8(const uint8_t value)
{
	Log_Buffer[buffer_index++] = value;
20002590:	af820024 	sw	v0,36(gp)
	Check_Buffer(7);
	Write_8('X');
	Write_32((uint32_t) task);
	Write_8('p');
	Write_8(priority);
}
20002594:	03e00008 	jr	ra
20002598:	27bd0020 	addiu	sp,sp,32

2000259c <Log_ISR_Time>:
///////////////////////////////////////////////////////////////////////////////

void Log_ISR_Time(const log_type_t log_type, const uint32_t task_index,
				  const uint32_t cycle_count)
{
	const uint32_t time = Get_Relative_Time(previous_isr_time, cycle_count);
2000259c:	8f82001c 	lw	v0,28(gp)

///////////////////////////////////////////////////////////////////////////////

void Log_ISR_Time(const log_type_t log_type, const uint32_t task_index,
				  const uint32_t cycle_count)
{
200025a0:	27bdffd8 	addiu	sp,sp,-40

///////////////////////////////////////////////////////////////////////////////

uint32_t Get_Relative_Time(const uint32_t first, const uint32_t second)
{
	if (second >= first)
200025a4:	00c2182b 	sltu	v1,a2,v0

///////////////////////////////////////////////////////////////////////////////

void Log_ISR_Time(const log_type_t log_type, const uint32_t task_index,
				  const uint32_t cycle_count)
{
200025a8:	afb20020 	sw	s2,32(sp)
200025ac:	afb1001c 	sw	s1,28(sp)
200025b0:	afb00018 	sw	s0,24(sp)
200025b4:	afbf0024 	sw	ra,36(sp)
200025b8:	00808021 	move	s0,a0
200025bc:	00a08821 	move	s1,a1

///////////////////////////////////////////////////////////////////////////////

uint32_t Get_Relative_Time(const uint32_t first, const uint32_t second)
{
	if (second >= first)
200025c0:	10600003 	beqz	v1,200025d0 <Log_ISR_Time+0x34>
200025c4:	00c29023 	subu	s2,a2,v0
	{
		return second - first;
	}

	return second + (UINT32_MAX - first);
200025c8:	00029027 	nor	s2,zero,v0
200025cc:	00d29021 	addu	s2,a2,s2

void Log_ISR_Time(const log_type_t log_type, const uint32_t task_index,
				  const uint32_t cycle_count)
{
	const uint32_t time = Get_Relative_Time(previous_isr_time, cycle_count);
	Check_Buffer(7);
200025d0:	24040007 	li	a0,7
200025d4:	0c00092c 	jal	200024b0 <Check_Buffer>
200025d8:	afa60010 	sw	a2,16(sp)

///////////////////////////////////////////////////////////////////////////////

void Write_8(const uint8_t value)
{
	Log_Buffer[buffer_index++] = value;
200025dc:	8f820024 	lw	v0,36(gp)
200025e0:	3c034000 	lui	v1,0x4000
200025e4:	246305e8 	addiu	v1,v1,1512
200025e8:	24440001 	addiu	a0,v0,1
200025ec:	24050079 	li	a1,121
200025f0:	00431021 	addu	v0,v0,v1
200025f4:	a0450000 	sb	a1,0(v0)
200025f8:	af840024 	sw	a0,36(gp)
200025fc:	8f820024 	lw	v0,36(gp)
				  const uint32_t cycle_count)
{
	const uint32_t time = Get_Relative_Time(previous_isr_time, cycle_count);
	Check_Buffer(7);
	Write_8('y');
	Write_8(task_index);
20002600:	322500ff 	andi	a1,s1,0xff

///////////////////////////////////////////////////////////////////////////////

void Write_8(const uint8_t value)
{
	Log_Buffer[buffer_index++] = value;
20002604:	24440001 	addiu	a0,v0,1
20002608:	00431021 	addu	v0,v0,v1
2000260c:	a0450000 	sb	a1,0(v0)
20002610:	af840024 	sw	a0,36(gp)
{
	const uint32_t time = Get_Relative_Time(previous_isr_time, cycle_count);
	Check_Buffer(7);
	Write_8('y');
	Write_8(task_index);
	Write_8(log_char[log_type]);
20002614:	2782fff8 	addiu	v0,gp,-8
20002618:	00508021 	addu	s0,v0,s0

///////////////////////////////////////////////////////////////////////////////

void Write_8(const uint8_t value)
{
	Log_Buffer[buffer_index++] = value;
2000261c:	8f820024 	lw	v0,36(gp)
{
	const uint32_t time = Get_Relative_Time(previous_isr_time, cycle_count);
	Check_Buffer(7);
	Write_8('y');
	Write_8(task_index);
	Write_8(log_char[log_type]);
20002620:	92050000 	lbu	a1,0(s0)

///////////////////////////////////////////////////////////////////////////////

void Write_8(const uint8_t value)
{
	Log_Buffer[buffer_index++] = value;
20002624:	00431821 	addu	v1,v0,v1
	Write_8(task_index);
	Write_8(log_char[log_type]);
	Write_32(time);

	// Update if task_index is not 255; nasty bit-fiddling to avoid branching.
	const int32_t update = task_index != 255;
20002628:	3a3100ff 	xori	s1,s1,0xff

///////////////////////////////////////////////////////////////////////////////

void Write_8(const uint8_t value)
{
	Log_Buffer[buffer_index++] = value;
2000262c:	24420001 	addiu	v0,v0,1
20002630:	a0650000 	sb	a1,0(v1)
	const uint32_t time = Get_Relative_Time(previous_isr_time, cycle_count);
	Check_Buffer(7);
	Write_8('y');
	Write_8(task_index);
	Write_8(log_char[log_type]);
	Write_32(time);
20002634:	02402021 	move	a0,s2

	// Update if task_index is not 255; nasty bit-fiddling to avoid branching.
	const int32_t update = task_index != 255;
20002638:	0011882b 	sltu	s1,zero,s1

///////////////////////////////////////////////////////////////////////////////

void Write_8(const uint8_t value)
{
	Log_Buffer[buffer_index++] = value;
2000263c:	af820024 	sw	v0,36(gp)
	const uint32_t time = Get_Relative_Time(previous_isr_time, cycle_count);
	Check_Buffer(7);
	Write_8('y');
	Write_8(task_index);
	Write_8(log_char[log_type]);
	Write_32(time);
20002640:	0c000884 	jal	20002210 <Write_32>
20002644:	00000000 	nop

	// Update if task_index is not 255; nasty bit-fiddling to avoid branching.
	const int32_t update = task_index != 255;
	const int32_t no_update = !update;
	previous_isr_time = (-update & cycle_count) |
20002648:	3a220001 	xori	v0,s1,0x1
2000264c:	8f83001c 	lw	v1,28(gp)
20002650:	8fa60010 	lw	a2,16(sp)
20002654:	00118823 	negu	s1,s1
20002658:	00021023 	negu	v0,v0
2000265c:	02263024 	and	a2,s1,a2
20002660:	00431024 	and	v0,v0,v1
						(-no_update & previous_isr_time);
}
20002664:	8fbf0024 	lw	ra,36(sp)
	Write_32(time);

	// Update if task_index is not 255; nasty bit-fiddling to avoid branching.
	const int32_t update = task_index != 255;
	const int32_t no_update = !update;
	previous_isr_time = (-update & cycle_count) |
20002668:	00463025 	or	a2,v0,a2
						(-no_update & previous_isr_time);
}
2000266c:	8fb20020 	lw	s2,32(sp)
20002670:	8fb1001c 	lw	s1,28(sp)
20002674:	8fb00018 	lw	s0,24(sp)
	Write_32(time);

	// Update if task_index is not 255; nasty bit-fiddling to avoid branching.
	const int32_t update = task_index != 255;
	const int32_t no_update = !update;
	previous_isr_time = (-update & cycle_count) |
20002678:	af86001c 	sw	a2,28(gp)
						(-no_update & previous_isr_time);
}
2000267c:	03e00008 	jr	ra
20002680:	27bd0028 	addiu	sp,sp,40

20002684 <Log_Tick_Start>:
}

///////////////////////////////////////////////////////////////////////////////

void Log_Tick_Start(const uint32_t task_index)
{
20002684:	27bdffe0 	addiu	sp,sp,-32
	Log_ISR_Time(LOG_INTERRUPT_END, last_index, Get_Watch(1));
20002688:	8f850014 	lw	a1,20(gp)
}

///////////////////////////////////////////////////////////////////////////////

void Log_Tick_Start(const uint32_t task_index)
{
2000268c:	afb00018 	sw	s0,24(sp)
20002690:	00808021 	move	s0,a0
	Log_ISR_Time(LOG_INTERRUPT_END, last_index, Get_Watch(1));
20002694:	24040001 	li	a0,1
}

///////////////////////////////////////////////////////////////////////////////

void Log_Tick_Start(const uint32_t task_index)
{
20002698:	afbf001c 	sw	ra,28(sp)
	Log_ISR_Time(LOG_INTERRUPT_END, last_index, Get_Watch(1));
2000269c:	0c0008c8 	jal	20002320 <Get_Watch>
200026a0:	afa50010 	sw	a1,16(sp)
200026a4:	8fa50010 	lw	a1,16(sp)
200026a8:	00403021 	move	a2,v0
200026ac:	0c000967 	jal	2000259c <Log_ISR_Time>
200026b0:	24040003 	li	a0,3
	Log_ISR_Time(LOG_INTERRUPT_END, idle_index, Get_Watch(4));
200026b4:	8f85fff4 	lw	a1,-12(gp)
200026b8:	24040004 	li	a0,4
200026bc:	0c0008c8 	jal	20002320 <Get_Watch>
200026c0:	afa50010 	sw	a1,16(sp)
200026c4:	8fa50010 	lw	a1,16(sp)
200026c8:	00403021 	move	a2,v0
200026cc:	0c000967 	jal	2000259c <Log_ISR_Time>
200026d0:	24040003 	li	a0,3

	last_index = task_index;

	Log_ISR_Time(LOG_INTERRUPT_START, task_index, Get_Watch(0));
200026d4:	00002021 	move	a0,zero
200026d8:	0c0008c8 	jal	20002320 <Get_Watch>
200026dc:	af900014 	sw	s0,20(gp)
200026e0:	00403021 	move	a2,v0
200026e4:	02002821 	move	a1,s0
}
200026e8:	8fbf001c 	lw	ra,28(sp)
200026ec:	8fb00018 	lw	s0,24(sp)
	Log_ISR_Time(LOG_INTERRUPT_END, last_index, Get_Watch(1));
	Log_ISR_Time(LOG_INTERRUPT_END, idle_index, Get_Watch(4));

	last_index = task_index;

	Log_ISR_Time(LOG_INTERRUPT_START, task_index, Get_Watch(0));
200026f0:	24040002 	li	a0,2
200026f4:	08000967 	j	2000259c <Log_ISR_Time>
200026f8:	27bd0020 	addiu	sp,sp,32

200026fc <Log_Hybrid_End>:
}

///////////////////////////////////////////////////////////////////////////////

void Log_Hybrid_End(const uint32_t task_index)
{
200026fc:	27bdffe0 	addiu	sp,sp,-32
20002700:	00802821 	move	a1,a0
	Log_ISR_Time(LOG_HYBRID_END, task_index, Get_Watch(0));
20002704:	00002021 	move	a0,zero
}

///////////////////////////////////////////////////////////////////////////////

void Log_Hybrid_End(const uint32_t task_index)
{
20002708:	afbf001c 	sw	ra,28(sp)
	Log_ISR_Time(LOG_HYBRID_END, task_index, Get_Watch(0));
2000270c:	0c0008c8 	jal	20002320 <Get_Watch>
20002710:	afa50010 	sw	a1,16(sp)
20002714:	8fa50010 	lw	a1,16(sp)
}
20002718:	8fbf001c 	lw	ra,28(sp)

///////////////////////////////////////////////////////////////////////////////

void Log_Hybrid_End(const uint32_t task_index)
{
	Log_ISR_Time(LOG_HYBRID_END, task_index, Get_Watch(0));
2000271c:	00403021 	move	a2,v0
20002720:	24040005 	li	a0,5
20002724:	08000967 	j	2000259c <Log_ISR_Time>
20002728:	27bd0020 	addiu	sp,sp,32

2000272c <Log_Hybrid_Start>:
}

///////////////////////////////////////////////////////////////////////////////

void Log_Hybrid_Start(const uint32_t task_index)
{
2000272c:	27bdffe0 	addiu	sp,sp,-32
20002730:	00802821 	move	a1,a0
	Log_ISR_Time(LOG_HYBRID_START, task_index, Get_Watch(1));
20002734:	24040001 	li	a0,1
}

///////////////////////////////////////////////////////////////////////////////

void Log_Hybrid_Start(const uint32_t task_index)
{
20002738:	afbf001c 	sw	ra,28(sp)
	Log_ISR_Time(LOG_HYBRID_START, task_index, Get_Watch(1));
2000273c:	0c0008c8 	jal	20002320 <Get_Watch>
20002740:	afa50010 	sw	a1,16(sp)
20002744:	8fa50010 	lw	a1,16(sp)
}
20002748:	8fbf001c 	lw	ra,28(sp)

///////////////////////////////////////////////////////////////////////////////

void Log_Hybrid_Start(const uint32_t task_index)
{
	Log_ISR_Time(LOG_HYBRID_START, task_index, Get_Watch(1));
2000274c:	00403021 	move	a2,v0
20002750:	24040004 	li	a0,4
20002754:	08000967 	j	2000259c <Log_ISR_Time>
20002758:	27bd0020 	addiu	sp,sp,32

2000275c <Log_Time>:
///////////////////////////////////////////////////////////////////////////////

void Log_Time(const log_type_t log_type, const uint32_t task_index,
			  const uint32_t cycle_count)
{
	const uint32_t time = Get_Relative_Time(previous_time, cycle_count);
2000275c:	8f820018 	lw	v0,24(gp)

///////////////////////////////////////////////////////////////////////////////

void Log_Time(const log_type_t log_type, const uint32_t task_index,
			  const uint32_t cycle_count)
{
20002760:	27bdffd8 	addiu	sp,sp,-40

///////////////////////////////////////////////////////////////////////////////

uint32_t Get_Relative_Time(const uint32_t first, const uint32_t second)
{
	if (second >= first)
20002764:	00c2182b 	sltu	v1,a2,v0

///////////////////////////////////////////////////////////////////////////////

void Log_Time(const log_type_t log_type, const uint32_t task_index,
			  const uint32_t cycle_count)
{
20002768:	afb10020 	sw	s1,32(sp)
2000276c:	afb0001c 	sw	s0,28(sp)
20002770:	afbf0024 	sw	ra,36(sp)
20002774:	00808021 	move	s0,a0

///////////////////////////////////////////////////////////////////////////////

uint32_t Get_Relative_Time(const uint32_t first, const uint32_t second)
{
	if (second >= first)
20002778:	10600003 	beqz	v1,20002788 <Log_Time+0x2c>
2000277c:	00c28823 	subu	s1,a2,v0
	{
		return second - first;
	}

	return second + (UINT32_MAX - first);
20002780:	00028827 	nor	s1,zero,v0
20002784:	00d18821 	addu	s1,a2,s1

void Log_Time(const log_type_t log_type, const uint32_t task_index,
			  const uint32_t cycle_count)
{
	const uint32_t time = Get_Relative_Time(previous_time, cycle_count);
	Check_Buffer(7);
20002788:	24040007 	li	a0,7
2000278c:	afa60014 	sw	a2,20(sp)
20002790:	0c00092c 	jal	200024b0 <Check_Buffer>
20002794:	afa50010 	sw	a1,16(sp)

///////////////////////////////////////////////////////////////////////////////

void Write_8(const uint8_t value)
{
	Log_Buffer[buffer_index++] = value;
20002798:	8f820024 	lw	v0,36(gp)
2000279c:	3c034000 	lui	v1,0x4000
200027a0:	246305e8 	addiu	v1,v1,1512
200027a4:	24440001 	addiu	a0,v0,1
200027a8:	24070079 	li	a3,121
200027ac:	00431021 	addu	v0,v0,v1
200027b0:	a0470000 	sb	a3,0(v0)
200027b4:	af840024 	sw	a0,36(gp)
200027b8:	8f820024 	lw	v0,36(gp)
			  const uint32_t cycle_count)
{
	const uint32_t time = Get_Relative_Time(previous_time, cycle_count);
	Check_Buffer(7);
	Write_8('y');
	Write_8(task_index);
200027bc:	8fa50010 	lw	a1,16(sp)

///////////////////////////////////////////////////////////////////////////////

void Write_8(const uint8_t value)
{
	Log_Buffer[buffer_index++] = value;
200027c0:	24440001 	addiu	a0,v0,1
			  const uint32_t cycle_count)
{
	const uint32_t time = Get_Relative_Time(previous_time, cycle_count);
	Check_Buffer(7);
	Write_8('y');
	Write_8(task_index);
200027c4:	30a500ff 	andi	a1,a1,0xff

///////////////////////////////////////////////////////////////////////////////

void Write_8(const uint8_t value)
{
	Log_Buffer[buffer_index++] = value;
200027c8:	00431021 	addu	v0,v0,v1
200027cc:	a0450000 	sb	a1,0(v0)
200027d0:	af840024 	sw	a0,36(gp)
{
	const uint32_t time = Get_Relative_Time(previous_time, cycle_count);
	Check_Buffer(7);
	Write_8('y');
	Write_8(task_index);
	Write_8(log_char[log_type]);
200027d4:	2782fff8 	addiu	v0,gp,-8
200027d8:	00508021 	addu	s0,v0,s0

///////////////////////////////////////////////////////////////////////////////

void Write_8(const uint8_t value)
{
	Log_Buffer[buffer_index++] = value;
200027dc:	8f820024 	lw	v0,36(gp)
{
	const uint32_t time = Get_Relative_Time(previous_time, cycle_count);
	Check_Buffer(7);
	Write_8('y');
	Write_8(task_index);
	Write_8(log_char[log_type]);
200027e0:	92050000 	lbu	a1,0(s0)

///////////////////////////////////////////////////////////////////////////////

void Write_8(const uint8_t value)
{
	Log_Buffer[buffer_index++] = value;
200027e4:	00431821 	addu	v1,v0,v1
	const uint32_t time = Get_Relative_Time(previous_time, cycle_count);
	Check_Buffer(7);
	Write_8('y');
	Write_8(task_index);
	Write_8(log_char[log_type]);
	Write_32(time);
200027e8:	02202021 	move	a0,s1

///////////////////////////////////////////////////////////////////////////////

void Write_8(const uint8_t value)
{
	Log_Buffer[buffer_index++] = value;
200027ec:	24420001 	addiu	v0,v0,1
200027f0:	a0650000 	sb	a1,0(v1)
200027f4:	af820024 	sw	v0,36(gp)
	const uint32_t time = Get_Relative_Time(previous_time, cycle_count);
	Check_Buffer(7);
	Write_8('y');
	Write_8(task_index);
	Write_8(log_char[log_type]);
	Write_32(time);
200027f8:	0c000884 	jal	20002210 <Write_32>
200027fc:	00000000 	nop
	previous_time = cycle_count;
20002800:	8fa60014 	lw	a2,20(sp)
}
20002804:	8fbf0024 	lw	ra,36(sp)
20002808:	8fb10020 	lw	s1,32(sp)
2000280c:	8fb0001c 	lw	s0,28(sp)
	Check_Buffer(7);
	Write_8('y');
	Write_8(task_index);
	Write_8(log_char[log_type]);
	Write_32(time);
	previous_time = cycle_count;
20002810:	af860018 	sw	a2,24(gp)
}
20002814:	03e00008 	jr	ra
20002818:	27bd0028 	addiu	sp,sp,40

2000281c <Log_Task_End>:
}

///////////////////////////////////////////////////////////////////////////////

void Log_Task_End(const uint32_t task_index)
{
2000281c:	27bdffe0 	addiu	sp,sp,-32
20002820:	00802821 	move	a1,a0
	Log_Time(LOG_TASK_END, task_index, Get_Watch(3));
20002824:	24040003 	li	a0,3
}

///////////////////////////////////////////////////////////////////////////////

void Log_Task_End(const uint32_t task_index)
{
20002828:	afbf001c 	sw	ra,28(sp)
	Log_Time(LOG_TASK_END, task_index, Get_Watch(3));
2000282c:	0c0008c8 	jal	20002320 <Get_Watch>
20002830:	afa50010 	sw	a1,16(sp)
20002834:	8fa50010 	lw	a1,16(sp)
}
20002838:	8fbf001c 	lw	ra,28(sp)

///////////////////////////////////////////////////////////////////////////////

void Log_Task_End(const uint32_t task_index)
{
	Log_Time(LOG_TASK_END, task_index, Get_Watch(3));
2000283c:	00403021 	move	a2,v0
20002840:	24040001 	li	a0,1
20002844:	080009d7 	j	2000275c <Log_Time>
20002848:	27bd0020 	addiu	sp,sp,32

2000284c <Log_Task_Start>:
}

///////////////////////////////////////////////////////////////////////////////

void Log_Task_Start(const uint32_t task_index)
{
2000284c:	27bdffe0 	addiu	sp,sp,-32
20002850:	00802821 	move	a1,a0
	Log_Time(LOG_TASK_START, task_index, Get_Watch(2));
20002854:	24040002 	li	a0,2
}

///////////////////////////////////////////////////////////////////////////////

void Log_Task_Start(const uint32_t task_index)
{
20002858:	afbf001c 	sw	ra,28(sp)
	Log_Time(LOG_TASK_START, task_index, Get_Watch(2));
2000285c:	0c0008c8 	jal	20002320 <Get_Watch>
20002860:	afa50010 	sw	a1,16(sp)
20002864:	8fa50010 	lw	a1,16(sp)
}
20002868:	8fbf001c 	lw	ra,28(sp)

///////////////////////////////////////////////////////////////////////////////

void Log_Task_Start(const uint32_t task_index)
{
	Log_Time(LOG_TASK_START, task_index, Get_Watch(2));
2000286c:	00403021 	move	a2,v0
20002870:	00002021 	move	a0,zero
20002874:	080009d7 	j	2000275c <Log_Time>
20002878:	27bd0020 	addiu	sp,sp,32

2000287c <Log_Init>:
}

///////////////////////////////////////////////////////////////////////////////

void Log_Init(void)
{
2000287c:	27bdffd8 	addiu	sp,sp,-40
	Check_Buffer(5);
20002880:	24040005 	li	a0,5
}

///////////////////////////////////////////////////////////////////////////////

void Log_Init(void)
{
20002884:	afbf0024 	sw	ra,36(sp)
20002888:	afb30020 	sw	s3,32(sp)
2000288c:	afb2001c 	sw	s2,28(sp)
20002890:	afb10018 	sw	s1,24(sp)
	Check_Buffer(5);
20002894:	0c00092c 	jal	200024b0 <Check_Buffer>
20002898:	afb00014 	sw	s0,20(sp)

///////////////////////////////////////////////////////////////////////////////

void Write_8(const uint8_t value)
{
	Log_Buffer[buffer_index++] = value;
2000289c:	8f820024 	lw	v0,36(gp)
200028a0:	3c034000 	lui	v1,0x4000
200028a4:	246305e8 	addiu	v1,v1,1512
200028a8:	00431821 	addu	v1,v0,v1
200028ac:	24050057 	li	a1,87

void Log_Init(void)
{
	Check_Buffer(5);
	Write_8('W');
	Write_32(Config_Oscillator_Frequency);
200028b0:	3c0402fa 	lui	a0,0x2fa

///////////////////////////////////////////////////////////////////////////////

void Write_8(const uint8_t value)
{
	Log_Buffer[buffer_index++] = value;
200028b4:	24420001 	addiu	v0,v0,1
200028b8:	a0650000 	sb	a1,0(v1)

void Log_Init(void)
{
	Check_Buffer(5);
	Write_8('W');
	Write_32(Config_Oscillator_Frequency);
200028bc:	3484f080 	ori	a0,a0,0xf080

///////////////////////////////////////////////////////////////////////////////

void Write_8(const uint8_t value)
{
	Log_Buffer[buffer_index++] = value;
200028c0:	af820024 	sw	v0,36(gp)

void Log_Init(void)
{
	Check_Buffer(5);
	Write_8('W');
	Write_32(Config_Oscillator_Frequency);
200028c4:	0c000884 	jal	20002210 <Write_32>
200028c8:	3c124000 	lui	s2,0x4000

	last_index = Config_Num_Tasks;
200028cc:	8f93ffd8 	lw	s3,-40(gp)
200028d0:	00000000 	nop
200028d4:	af930014 	sw	s3,20(gp)

	uint32_t priority = 0;
	for (uint32_t i = 0; i < Config_Num_Tasks; i++)
	{
		if (Tasks[i].exec_from_isr == TRUE)
200028d8:	26520058 	addiu	s2,s2,88
{
	Check_Buffer(5);
	Write_8('W');
	Write_32(Config_Oscillator_Frequency);

	last_index = Config_Num_Tasks;
200028dc:	00008021 	move	s0,zero

	uint32_t priority = 0;
	for (uint32_t i = 0; i < Config_Num_Tasks; i++)
200028e0:	08000a49 	j	20002924 <Log_Init+0xa8>
200028e4:	24110018 	li	s1,24
200028e8:	8f850014 	lw	a1,20(gp)
200028ec:	00000000 	nop
	{
		if (Tasks[i].exec_from_isr == TRUE)
		{
			priority = (last_index * 2) - i;
200028f0:	00051040 	sll	v0,a1,0x1
		}
		else
		{
			priority = last_index - i;
200028f4:	00b02823 	subu	a1,a1,s0
		}
		Log_Task_Address(Tasks[i].task_function, priority);
200028f8:	00001812 	mflo	v1
200028fc:	00721821 	addu	v1,v1,s2
	last_index = Config_Num_Tasks;

	uint32_t priority = 0;
	for (uint32_t i = 0; i < Config_Num_Tasks; i++)
	{
		if (Tasks[i].exec_from_isr == TRUE)
20002900:	90640014 	lbu	a0,20(v1)
20002904:	00000000 	nop
20002908:	10800002 	beqz	a0,20002914 <Log_Init+0x98>
2000290c:	00000000 	nop
		{
			priority = (last_index * 2) - i;
20002910:	00502823 	subu	a1,v0,s0
		}
		else
		{
			priority = last_index - i;
		}
		Log_Task_Address(Tasks[i].task_function, priority);
20002914:	8c640000 	lw	a0,0(v1)
20002918:	0c000941 	jal	20002504 <Log_Task_Address>
2000291c:	30a500ff 	andi	a1,a1,0xff
	Write_32(Config_Oscillator_Frequency);

	last_index = Config_Num_Tasks;

	uint32_t priority = 0;
	for (uint32_t i = 0; i < Config_Num_Tasks; i++)
20002920:	26100001 	addiu	s0,s0,1
20002924:	0213102b 	sltu	v0,s0,s3
20002928:	1440ffef 	bnez	v0,200028e8 <Log_Init+0x6c>
2000292c:	02110018 	mult	s0,s1
			priority = last_index - i;
		}
		Log_Task_Address(Tasks[i].task_function, priority);
	}

	Log_Reset_Addresses();
20002930:	0c0008f2 	jal	200023c8 <Log_Reset_Addresses>
20002934:	00000000 	nop

	previous_time = Get_Watch(0);
20002938:	0c0008c8 	jal	20002320 <Get_Watch>
2000293c:	00002021 	move	a0,zero
	previous_isr_time = previous_time;
	Log_Time(LOG_TASK_START, last_index, 0);
20002940:	8f850014 	lw	a1,20(gp)
}
20002944:	8fbf0024 	lw	ra,36(sp)
20002948:	8fb30020 	lw	s3,32(sp)
2000294c:	8fb2001c 	lw	s2,28(sp)
20002950:	8fb10018 	lw	s1,24(sp)
20002954:	8fb00014 	lw	s0,20(sp)

	Log_Reset_Addresses();

	previous_time = Get_Watch(0);
	previous_isr_time = previous_time;
	Log_Time(LOG_TASK_START, last_index, 0);
20002958:	00002021 	move	a0,zero
2000295c:	00003021 	move	a2,zero
}
20002960:	27bd0028 	addiu	sp,sp,40
	}

	Log_Reset_Addresses();

	previous_time = Get_Watch(0);
	previous_isr_time = previous_time;
20002964:	af82001c 	sw	v0,28(gp)
	Log_Time(LOG_TASK_START, last_index, 0);
20002968:	080009d7 	j	2000275c <Log_Time>
2000296c:	af820018 	sw	v0,24(gp)

20002970 <Log_Tick_End>:

///////////////////////////////////////////////////////////////////////////////

void Log_Tick_End(const uint32_t task_index)
{
	current_tick++;
20002970:	8f820020 	lw	v0,32(gp)
}

///////////////////////////////////////////////////////////////////////////////

void Log_Tick_End(const uint32_t task_index)
{
20002974:	27bdffe8 	addiu	sp,sp,-24
	current_tick++;
20002978:	24420001 	addiu	v0,v0,1
	if (current_tick > Config_Log_Num_Ticks)
2000297c:	2c430065 	sltiu	v1,v0,101
}

///////////////////////////////////////////////////////////////////////////////

void Log_Tick_End(const uint32_t task_index)
{
20002980:	afb00010 	sw	s0,16(sp)
20002984:	afbf0014 	sw	ra,20(sp)
20002988:	00808021 	move	s0,a0
	current_tick++;
	if (current_tick > Config_Log_Num_Ticks)
2000298c:	1460000d 	bnez	v1,200029c4 <Log_Tick_End+0x54>
20002990:	af820020 	sw	v0,32(gp)
	{
		Check_Buffer(1);
20002994:	0c00092c 	jal	200024b0 <Check_Buffer>
20002998:	24040001 	li	a0,1

///////////////////////////////////////////////////////////////////////////////

void Write_8(const uint8_t value)
{
	Log_Buffer[buffer_index++] = value;
2000299c:	8f820024 	lw	v0,36(gp)
200029a0:	3c034000 	lui	v1,0x4000
200029a4:	246305e8 	addiu	v1,v1,1512
200029a8:	00431821 	addu	v1,v0,v1
200029ac:	24040067 	li	a0,103
200029b0:	24420001 	addiu	v0,v0,1
200029b4:	a0640000 	sb	a0,0(v1)
200029b8:	af820024 	sw	v0,36(gp)
	current_tick++;
	if (current_tick > Config_Log_Num_Ticks)
	{
		Check_Buffer(1);
		Write_8('g');
		LOG_Trigger_Breakpoint();
200029bc:	0c0007af 	jal	20001ebc <LOG_Trigger_Breakpoint>
200029c0:	00000000 	nop
	}

	if (task_index >= Config_Num_Tasks)
200029c4:	8f82ffd8 	lw	v0,-40(gp)
200029c8:	00000000 	nop
200029cc:	0202802b 	sltu	s0,s0,v0
200029d0:	16000002 	bnez	s0,200029dc <Log_Tick_End+0x6c>
200029d4:	240200ff 	li	v0,255
	{
		idle_index = UINT8_MAX;
200029d8:	af82fff4 	sw	v0,-12(gp)
	}
}
200029dc:	8fbf0014 	lw	ra,20(sp)
200029e0:	8fb00010 	lw	s0,16(sp)
200029e4:	03e00008 	jr	ra
200029e8:	27bd0018 	addiu	sp,sp,24

200029ec <Init_Interrupt>:
///////////////////////////////////////////////////////////////////////////////


void Init_Interrupt(void)
{
	TableBase = (uint32_t)InterruptHandler;
200029ec:	3c022000 	lui	v0,0x2000
200029f0:	24421cf8 	addiu	v0,v0,7416
200029f4:	af82ff98 	sw	v0,-104(gp)
 *
 */
uint32_t Status_Reg_Get()
{
	uint32_t regValue;
	__asm volatile("mfc0 %0, $12" : "=d" (regValue) :);
200029f8:	40026000 	mfc0	v0,c0_sr
200029fc:	00000000 	nop
 *
 * \param[in] The value to write.
 */
void Status_Reg_Set(uint32_t value)
{
	__asm volatile("mtc0 %0, $12" :: "d" ((unsigned long)(value)));
20002a00:	34420700 	ori	v0,v0,0x700
20002a04:	40826000 	mtc0	v0,c0_sr

void Init_Interrupt(void)
{
	TableBase = (uint32_t)InterruptHandler;
	Enable_System_Interrupt(Config_Scheduler_Interrupt_Number);
}
20002a08:	03e00008 	jr	ra
20002a0c:	00000000 	nop

20002a10 <Handle_Interrupts>:

///////////////////////////////////////////////////////////////////////////////

void Handle_Interrupts(void)
{
	Scheduler_Tick();
20002a10:	080007b1 	j	20001ec4 <Scheduler_Tick>
20002a14:	00000000 	nop

20002a18 <Enable_Interrupt>:

///////////////////////////////////////////////////////////////////////////////

void Enable_Interrupt(void)
{
	if (nesting_level > 0)
20002a18:	8f820028 	lw	v0,40(gp)
20002a1c:	00000000 	nop
20002a20:	10400005 	beqz	v0,20002a38 <Enable_Interrupt+0x20>
20002a24:	00000000 	nop
	{
		nesting_level--;
20002a28:	2442ffff 	addiu	v0,v0,-1
20002a2c:	af820028 	sw	v0,40(gp)
	}

	if (nesting_level == 0)
20002a30:	8f820028 	lw	v0,40(gp)
20002a34:	00000000 	nop
20002a38:	14400003 	bnez	v0,20002a48 <Enable_Interrupt+0x30>
20002a3c:	00000000 	nop
	{
		Enable_Interrupts();
20002a40:	0800078b 	j	20001e2c <Enable_Interrupts>
20002a44:	00000000 	nop
20002a48:	03e00008 	jr	ra
20002a4c:	00000000 	nop

20002a50 <Disable_Interrupt>:
}

///////////////////////////////////////////////////////////////////////////////

void Disable_Interrupt(void)
{
20002a50:	27bdffe8 	addiu	sp,sp,-24
20002a54:	afbf0014 	sw	ra,20(sp)
	Disable_Interrupts();
20002a58:	0c000797 	jal	20001e5c <Disable_Interrupts>
20002a5c:	00000000 	nop
	nesting_level++;
20002a60:	8f820028 	lw	v0,40(gp)
}
20002a64:	8fbf0014 	lw	ra,20(sp)
///////////////////////////////////////////////////////////////////////////////

void Disable_Interrupt(void)
{
	Disable_Interrupts();
	nesting_level++;
20002a68:	24420001 	addiu	v0,v0,1
20002a6c:	af820028 	sw	v0,40(gp)
}
20002a70:	03e00008 	jr	ra
20002a74:	27bd0018 	addiu	sp,sp,24

20002a78 <Timer_Init>:
	Timer_Set_Prescalar(timer, 0);
	Timer_Clear(timer);
	Timer_Overflow_Clear(timer);

	const uint32_t clock_frequency = oscillator_frequency;
	const uint32_t timer_frequency = clock_frequency / clock_divider;
20002a78:	14e00002 	bnez	a3,20002a84 <Timer_Init+0xc>
20002a7c:	00c7001b 	divu	zero,a2,a3
20002a80:	0007000d 	break	0x7

///////////////////////////////////////////////////////////////////////////////

uint32_t Timer_Init(const uint8_t timer, const uint32_t tick_us,
		const uint32_t oscillator_frequency, const uint32_t clock_divider)
{
20002a84:	308400ff 	andi	a0,a0,0xff

///////////////////////////////////////////////////////////////////////////////

void Timer_Stop(const uint8_t timer)
{
	timer_register[timer].control &= ~control_start;
20002a88:	3c028000 	lui	v0,0x8000
20002a8c:	00042200 	sll	a0,a0,0x8
20002a90:	00822021 	addu	a0,a0,v0
20002a94:	8c870000 	lw	a3,0(a0)
20002a98:	2402fffe 	li	v0,-2
20002a9c:	00e21024 	and	v0,a3,v0
20002aa0:	ac820000 	sw	v0,0(a0)
///////////////////////////////////////////////////////////////////////////////

void Timer_Set_Prescalar(const uint8_t timer, const uint32_t prescalar)
{
	const uint32_t value = prescalar > 0 ? prescalar - 1 : 0;
	timer_register[timer].prescalar_match = value;
20002aa4:	ac800008 	sw	zero,8(a0)

///////////////////////////////////////////////////////////////////////////////

void Timer_Clear(const uint8_t timer)
{
	timer_register[timer].timer_counter = 0;
20002aa8:	ac80000c 	sw	zero,12(a0)

///////////////////////////////////////////////////////////////////////////////

void Timer_Overflow_Clear(const uint8_t timer)
{
	timer_register[timer].control &= ~control_overflow;
20002aac:	8c870000 	lw	a3,0(a0)
	Timer_Clear(timer);
	Timer_Overflow_Clear(timer);

	const uint32_t clock_frequency = oscillator_frequency;
	const uint32_t timer_frequency = clock_frequency / clock_divider;
	Timer_Set_Prescalar(timer, timer_frequency / 1000000);
20002ab0:	3c06000f 	lui	a2,0xf

///////////////////////////////////////////////////////////////////////////////

void Timer_Overflow_Clear(const uint8_t timer)
{
	timer_register[timer].control &= ~control_overflow;
20002ab4:	2402fffd 	li	v0,-3
20002ab8:	00e21024 	and	v0,a3,v0
	Timer_Clear(timer);
	Timer_Overflow_Clear(timer);

	const uint32_t clock_frequency = oscillator_frequency;
	const uint32_t timer_frequency = clock_frequency / clock_divider;
	Timer_Set_Prescalar(timer, timer_frequency / 1000000);
20002abc:	34c64240 	ori	a2,a2,0x4240

///////////////////////////////////////////////////////////////////////////////

void Timer_Overflow_Clear(const uint8_t timer)
{
	timer_register[timer].control &= ~control_overflow;
20002ac0:	ac820000 	sw	v0,0(a0)
	Timer_Set_Prescalar(timer, 0);
	Timer_Clear(timer);
	Timer_Overflow_Clear(timer);

	const uint32_t clock_frequency = oscillator_frequency;
	const uint32_t timer_frequency = clock_frequency / clock_divider;
20002ac4:	00001812 	mflo	v1
	...
	Timer_Set_Prescalar(timer, timer_frequency / 1000000);

	const uint32_t match = timer_frequency / (timer_frequency / tick_us);
20002ad0:	14a00002 	bnez	a1,20002adc <Timer_Init+0x64>
20002ad4:	0065001b 	divu	zero,v1,a1
20002ad8:	0007000d 	break	0x7
20002adc:	00002812 	mflo	a1
	...
20002ae8:	14a00002 	bnez	a1,20002af4 <Timer_Init+0x7c>
20002aec:	0065001b 	divu	zero,v1,a1
20002af0:	0007000d 	break	0x7
20002af4:	00001012 	mflo	v0

///////////////////////////////////////////////////////////////////////////////

void Timer_Set_Match(const uint8_t timer, const uint32_t match)
{
	const uint32_t value = match > 0 ? match - 1 : 0;
20002af8:	0002282b 	sltu	a1,zero,v0
20002afc:	00052823 	negu	a1,a1
	Timer_Clear(timer);
	Timer_Overflow_Clear(timer);

	const uint32_t clock_frequency = oscillator_frequency;
	const uint32_t timer_frequency = clock_frequency / clock_divider;
	Timer_Set_Prescalar(timer, timer_frequency / 1000000);
20002b00:	14c00002 	bnez	a2,20002b0c <Timer_Init+0x94>
20002b04:	0066001b 	divu	zero,v1,a2
20002b08:	0007000d 	break	0x7

///////////////////////////////////////////////////////////////////////////////

void Timer_Set_Match(const uint8_t timer, const uint32_t match)
{
	const uint32_t value = match > 0 ? match - 1 : 0;
20002b0c:	2447ffff 	addiu	a3,v0,-1
20002b10:	00e53824 	and	a3,a3,a1
	Timer_Clear(timer);
	Timer_Overflow_Clear(timer);

	const uint32_t clock_frequency = oscillator_frequency;
	const uint32_t timer_frequency = clock_frequency / clock_divider;
	Timer_Set_Prescalar(timer, timer_frequency / 1000000);
20002b14:	00001812 	mflo	v1

///////////////////////////////////////////////////////////////////////////////

void Timer_Set_Prescalar(const uint8_t timer, const uint32_t prescalar)
{
	const uint32_t value = prescalar > 0 ? prescalar - 1 : 0;
20002b18:	0003282b 	sltu	a1,zero,v1
20002b1c:	00052823 	negu	a1,a1
20002b20:	2463ffff 	addiu	v1,v1,-1
20002b24:	00651824 	and	v1,v1,a1
	timer_register[timer].prescalar_match = value;
20002b28:	ac830008 	sw	v1,8(a0)
///////////////////////////////////////////////////////////////////////////////

void Timer_Set_Match(const uint8_t timer, const uint32_t match)
{
	const uint32_t value = match > 0 ? match - 1 : 0;
	timer_register[timer].timer_match = value;
20002b2c:	ac870010 	sw	a3,16(a0)

	const uint32_t match = timer_frequency / (timer_frequency / tick_us);
	Timer_Set_Match(timer, match);

	return match;
}
20002b30:	03e00008 	jr	ra
20002b34:	00000000 	nop

20002b38 <Timer_Start>:
}

///////////////////////////////////////////////////////////////////////////////

void Timer_Start(const uint8_t timer)
{
20002b38:	308400ff 	andi	a0,a0,0xff
	timer_register[timer].control |= control_start;
20002b3c:	3c028000 	lui	v0,0x8000
20002b40:	00042200 	sll	a0,a0,0x8
20002b44:	00822021 	addu	a0,a0,v0
20002b48:	8c820000 	lw	v0,0(a0)
20002b4c:	00000000 	nop
20002b50:	34420001 	ori	v0,v0,0x1
20002b54:	ac820000 	sw	v0,0(a0)
}
20002b58:	03e00008 	jr	ra
20002b5c:	00000000 	nop

20002b60 <SPI_Init>:
static const uint32_t control_cpol     = (1 << 2);

///////////////////////////////////////////////////////////////////////////////

void SPI_Init(const uint8_t spi, const uint32_t mode, const uint32_t clock_divider)
{
20002b60:	308400ff 	andi	a0,a0,0xff
	spi_register[spi].control = ((mode & 0x03) << 1);
20002b64:	3c028000 	lui	v0,0x8000
20002b68:	34420a00 	ori	v0,v0,0xa00
20002b6c:	00042200 	sll	a0,a0,0x8
20002b70:	00822021 	addu	a0,a0,v0
20002b74:	30a50003 	andi	a1,a1,0x3
	spi_register[spi].clk_div = clock_divider & 0xFFFFFFFC;
20002b78:	2402fffc 	li	v0,-4
20002b7c:	00c21024 	and	v0,a2,v0

///////////////////////////////////////////////////////////////////////////////

void SPI_Init(const uint8_t spi, const uint32_t mode, const uint32_t clock_divider)
{
	spi_register[spi].control = ((mode & 0x03) << 1);
20002b80:	00052840 	sll	a1,a1,0x1
20002b84:	ac850000 	sw	a1,0(a0)
	spi_register[spi].clk_div = clock_divider & 0xFFFFFFFC;
20002b88:	ac820004 	sw	v0,4(a0)
}
20002b8c:	03e00008 	jr	ra
20002b90:	00000000 	nop

20002b94 <SPI_Swap>:
}

///////////////////////////////////////////////////////////////////////////////

uint8_t SPI_Swap(const uint8_t spi, const uint8_t data)
{
20002b94:	308400ff 	andi	a0,a0,0xff

///////////////////////////////////////////////////////////////////////////////

boolean_t SPI_Ready(const uint8_t spi)
{
	return spi_register[spi].control & 0x01;
20002b98:	3c028000 	lui	v0,0x8000
20002b9c:	00042200 	sll	a0,a0,0x8
20002ba0:	34420a00 	ori	v0,v0,0xa00
20002ba4:	00822021 	addu	a0,a0,v0
}

///////////////////////////////////////////////////////////////////////////////

uint8_t SPI_Swap(const uint8_t spi, const uint8_t data)
{
20002ba8:	30a500ff 	andi	a1,a1,0xff

///////////////////////////////////////////////////////////////////////////////

boolean_t SPI_Ready(const uint8_t spi)
{
	return spi_register[spi].control & 0x01;
20002bac:	8c820000 	lw	v0,0(a0)
20002bb0:	00000000 	nop

///////////////////////////////////////////////////////////////////////////////

uint8_t SPI_Swap(const uint8_t spi, const uint8_t data)
{
	while(!SPI_Ready(spi));
20002bb4:	30420001 	andi	v0,v0,0x1
20002bb8:	1040fffc 	beqz	v0,20002bac <SPI_Swap+0x18>
20002bbc:	00000000 	nop
	spi_register[spi].data = data;
20002bc0:	ac850008 	sw	a1,8(a0)

///////////////////////////////////////////////////////////////////////////////

boolean_t SPI_Ready(const uint8_t spi)
{
	return spi_register[spi].control & 0x01;
20002bc4:	8c820000 	lw	v0,0(a0)
20002bc8:	00000000 	nop

uint8_t SPI_Swap(const uint8_t spi, const uint8_t data)
{
	while(!SPI_Ready(spi));
	spi_register[spi].data = data;
	while(!SPI_Ready(spi));
20002bcc:	30420001 	andi	v0,v0,0x1
20002bd0:	1040fffc 	beqz	v0,20002bc4 <SPI_Swap+0x30>
20002bd4:	00000000 	nop
	return spi_register[spi].data;
20002bd8:	8c820008 	lw	v0,8(a0)
}
20002bdc:	03e00008 	jr	ra
20002be0:	304200ff 	andi	v0,v0,0xff

20002be4 <Segment_Clear_Decimal>:
}

///////////////////////////////////////////////////////////////////////////////

void Segment_Clear_Decimal(const segment_digit_t digit)
{
20002be4:	27bdffe0 	addiu	sp,sp,-32
20002be8:	afb10018 	sw	s1,24(sp)
20002bec:	afb00014 	sw	s0,20(sp)
20002bf0:	3091ffff 	andi	s1,a0,0xffff
20002bf4:	309000ff 	andi	s0,a0,0xff
20002bf8:	afbf001c 	sw	ra,28(sp)
20002bfc:	a7a40020 	sh	a0,32(sp)
	TTE_DEBUG_ASSERT(digit.segment < 1);
20002c00:	12000005 	beqz	s0,20002c18 <Segment_Clear_Decimal+0x34>
20002c04:	00118a02 	srl	s1,s1,0x8
20002c08:	3c044000 	lui	a0,0x4000
20002c0c:	24840000 	addiu	a0,a0,0
20002c10:	0c000056 	jal	20000158 <DEBUG_Assert_Failed>
20002c14:	24050056 	li	a1,86
	TTE_DEBUG_ASSERT(digit.digit < 4);
20002c18:	2e220004 	sltiu	v0,s1,4
20002c1c:	14400006 	bnez	v0,20002c38 <Segment_Clear_Decimal+0x54>
20002c20:	3c024000 	lui	v0,0x4000
20002c24:	3c044000 	lui	a0,0x4000
20002c28:	24840000 	addiu	a0,a0,0
20002c2c:	0c000056 	jal	20000158 <DEBUG_Assert_Failed>
20002c30:	24050057 	li	a1,87

	segment_register[digit.segment].decimals &= ~segment_decimal[digit.digit];
20002c34:	3c024000 	lui	v0,0x4000
20002c38:	24420028 	addiu	v0,v0,40
20002c3c:	00118880 	sll	s1,s1,0x2
20002c40:	02228821 	addu	s1,s1,v0
20002c44:	3c028000 	lui	v0,0x8000
20002c48:	34420900 	ori	v0,v0,0x900
20002c4c:	00108200 	sll	s0,s0,0x8
20002c50:	02028021 	addu	s0,s0,v0
20002c54:	8e220000 	lw	v0,0(s1)
20002c58:	8e030008 	lw	v1,8(s0)
20002c5c:	00021027 	nor	v0,zero,v0
}
20002c60:	8fbf001c 	lw	ra,28(sp)
void Segment_Clear_Decimal(const segment_digit_t digit)
{
	TTE_DEBUG_ASSERT(digit.segment < 1);
	TTE_DEBUG_ASSERT(digit.digit < 4);

	segment_register[digit.segment].decimals &= ~segment_decimal[digit.digit];
20002c64:	00431024 	and	v0,v0,v1
20002c68:	ae020008 	sw	v0,8(s0)
}
20002c6c:	8fb10018 	lw	s1,24(sp)
20002c70:	8fb00014 	lw	s0,20(sp)
20002c74:	03e00008 	jr	ra
20002c78:	27bd0020 	addiu	sp,sp,32

20002c7c <Segment_Set_Decimal>:
}

///////////////////////////////////////////////////////////////////////////////

void Segment_Set_Decimal(const segment_digit_t digit)
{
20002c7c:	27bdffe0 	addiu	sp,sp,-32
20002c80:	afb10018 	sw	s1,24(sp)
20002c84:	afb00014 	sw	s0,20(sp)
20002c88:	309100ff 	andi	s1,a0,0xff
20002c8c:	3090ffff 	andi	s0,a0,0xffff
20002c90:	afbf001c 	sw	ra,28(sp)
20002c94:	a7a40020 	sh	a0,32(sp)
	TTE_DEBUG_ASSERT(digit.segment < 1);
20002c98:	12200005 	beqz	s1,20002cb0 <Segment_Set_Decimal+0x34>
20002c9c:	00108202 	srl	s0,s0,0x8
20002ca0:	3c044000 	lui	a0,0x4000
20002ca4:	24840000 	addiu	a0,a0,0
20002ca8:	0c000056 	jal	20000158 <DEBUG_Assert_Failed>
20002cac:	2405004c 	li	a1,76
	TTE_DEBUG_ASSERT(digit.digit < 4);
20002cb0:	2e020004 	sltiu	v0,s0,4
20002cb4:	14400006 	bnez	v0,20002cd0 <Segment_Set_Decimal+0x54>
20002cb8:	3c028000 	lui	v0,0x8000
20002cbc:	3c044000 	lui	a0,0x4000
20002cc0:	24840000 	addiu	a0,a0,0
20002cc4:	0c000056 	jal	20000158 <DEBUG_Assert_Failed>
20002cc8:	2405004d 	li	a1,77

	segment_register[digit.segment].decimals |= segment_decimal[digit.digit];
20002ccc:	3c028000 	lui	v0,0x8000
20002cd0:	34420900 	ori	v0,v0,0x900
20002cd4:	00118a00 	sll	s1,s1,0x8
20002cd8:	02228821 	addu	s1,s1,v0
20002cdc:	3c024000 	lui	v0,0x4000
20002ce0:	24420028 	addiu	v0,v0,40
20002ce4:	00108080 	sll	s0,s0,0x2
20002ce8:	02028021 	addu	s0,s0,v0
20002cec:	8e230008 	lw	v1,8(s1)
20002cf0:	8e020000 	lw	v0,0(s0)
}
20002cf4:	8fbf001c 	lw	ra,28(sp)
void Segment_Set_Decimal(const segment_digit_t digit)
{
	TTE_DEBUG_ASSERT(digit.segment < 1);
	TTE_DEBUG_ASSERT(digit.digit < 4);

	segment_register[digit.segment].decimals |= segment_decimal[digit.digit];
20002cf8:	00621025 	or	v0,v1,v0
20002cfc:	ae220008 	sw	v0,8(s1)
}
20002d00:	8fb00014 	lw	s0,20(sp)
20002d04:	8fb10018 	lw	s1,24(sp)
20002d08:	03e00008 	jr	ra
20002d0c:	27bd0020 	addiu	sp,sp,32

20002d10 <Segment_Write>:
}

///////////////////////////////////////////////////////////////////////////////

void Segment_Write(const segment_digit_t digit, const uint8_t value)
{
20002d10:	27bdffe0 	addiu	sp,sp,-32
20002d14:	afb10014 	sw	s1,20(sp)
20002d18:	afb00010 	sw	s0,16(sp)
20002d1c:	3091ffff 	andi	s1,a0,0xffff
20002d20:	309000ff 	andi	s0,a0,0xff
20002d24:	afb20018 	sw	s2,24(sp)
20002d28:	afbf001c 	sw	ra,28(sp)
20002d2c:	a7a40020 	sh	a0,32(sp)
20002d30:	30b200ff 	andi	s2,a1,0xff
	TTE_DEBUG_ASSERT(digit.segment < 1);
20002d34:	12000005 	beqz	s0,20002d4c <Segment_Write+0x3c>
20002d38:	00118a02 	srl	s1,s1,0x8
20002d3c:	3c044000 	lui	a0,0x4000
20002d40:	24840000 	addiu	a0,a0,0
20002d44:	0c000056 	jal	20000158 <DEBUG_Assert_Failed>
20002d48:	24050041 	li	a1,65
	TTE_DEBUG_ASSERT(digit.digit < 4);
20002d4c:	2e220004 	sltiu	v0,s1,4
20002d50:	14400006 	bnez	v0,20002d6c <Segment_Write+0x5c>
20002d54:	3c024000 	lui	v0,0x4000
20002d58:	3c044000 	lui	a0,0x4000
20002d5c:	24840000 	addiu	a0,a0,0
20002d60:	0c000056 	jal	20000158 <DEBUG_Assert_Failed>
20002d64:	24050042 	li	a1,66

	segment_register[digit.segment].values &= ~segment_value[digit.digit];
20002d68:	3c024000 	lui	v0,0x4000
20002d6c:	00118880 	sll	s1,s1,0x2
20002d70:	24420038 	addiu	v0,v0,56
20002d74:	3c038000 	lui	v1,0x8000
20002d78:	02221021 	addu	v0,s1,v0
20002d7c:	34630900 	ori	v1,v1,0x900
20002d80:	00108200 	sll	s0,s0,0x8
20002d84:	02038021 	addu	s0,s0,v1
20002d88:	8c420000 	lw	v0,0(v0)
20002d8c:	8e030004 	lw	v1,4(s0)
20002d90:	00021027 	nor	v0,zero,v0
20002d94:	00431024 	and	v0,v0,v1
20002d98:	ae020004 	sw	v0,4(s0)
	segment_register[digit.segment].values |= (value << (digit.digit * 4));
20002d9c:	8e020004 	lw	v0,4(s0)
20002da0:	02328804 	sllv	s1,s2,s1
}
20002da4:	8fbf001c 	lw	ra,28(sp)
{
	TTE_DEBUG_ASSERT(digit.segment < 1);
	TTE_DEBUG_ASSERT(digit.digit < 4);

	segment_register[digit.segment].values &= ~segment_value[digit.digit];
	segment_register[digit.segment].values |= (value << (digit.digit * 4));
20002da8:	02228825 	or	s1,s1,v0
20002dac:	ae110004 	sw	s1,4(s0)
}
20002db0:	8fb20018 	lw	s2,24(sp)
20002db4:	8fb10014 	lw	s1,20(sp)
20002db8:	8fb00010 	lw	s0,16(sp)
20002dbc:	03e00008 	jr	ra
20002dc0:	27bd0020 	addiu	sp,sp,32

20002dc4 <Segment_Enable>:
											(1 << 2), (1 << 3) };

///////////////////////////////////////////////////////////////////////////////

void Segment_Enable(const segment_digit_t digit)
{
20002dc4:	27bdffe0 	addiu	sp,sp,-32
20002dc8:	afb10018 	sw	s1,24(sp)
20002dcc:	afb00014 	sw	s0,20(sp)
20002dd0:	309100ff 	andi	s1,a0,0xff
20002dd4:	3090ffff 	andi	s0,a0,0xffff
20002dd8:	afbf001c 	sw	ra,28(sp)
20002ddc:	a7a40020 	sh	a0,32(sp)
	TTE_DEBUG_ASSERT(digit.segment < 1);
20002de0:	12200005 	beqz	s1,20002df8 <Segment_Enable+0x34>
20002de4:	00108202 	srl	s0,s0,0x8
20002de8:	3c044000 	lui	a0,0x4000
20002dec:	24840000 	addiu	a0,a0,0
20002df0:	0c000056 	jal	20000158 <DEBUG_Assert_Failed>
20002df4:	2405002d 	li	a1,45
	TTE_DEBUG_ASSERT(digit.digit < 4);
20002df8:	2e020004 	sltiu	v0,s0,4
20002dfc:	14400006 	bnez	v0,20002e18 <Segment_Enable+0x54>
20002e00:	3c028000 	lui	v0,0x8000
20002e04:	3c044000 	lui	a0,0x4000
20002e08:	24840000 	addiu	a0,a0,0
20002e0c:	0c000056 	jal	20000158 <DEBUG_Assert_Failed>
20002e10:	2405002e 	li	a1,46

	segment_register[digit.segment].enabled |= segment_enabled[digit.digit];
20002e14:	3c028000 	lui	v0,0x8000
20002e18:	34420900 	ori	v0,v0,0x900
20002e1c:	00118a00 	sll	s1,s1,0x8
20002e20:	02228821 	addu	s1,s1,v0
20002e24:	3c024000 	lui	v0,0x4000
20002e28:	24420048 	addiu	v0,v0,72
20002e2c:	00108080 	sll	s0,s0,0x2
20002e30:	02028021 	addu	s0,s0,v0
20002e34:	8e230000 	lw	v1,0(s1)
20002e38:	8e020000 	lw	v0,0(s0)
}
20002e3c:	8fbf001c 	lw	ra,28(sp)
void Segment_Enable(const segment_digit_t digit)
{
	TTE_DEBUG_ASSERT(digit.segment < 1);
	TTE_DEBUG_ASSERT(digit.digit < 4);

	segment_register[digit.segment].enabled |= segment_enabled[digit.digit];
20002e40:	00621025 	or	v0,v1,v0
20002e44:	ae220000 	sw	v0,0(s1)
}
20002e48:	8fb00014 	lw	s0,20(sp)
20002e4c:	8fb10018 	lw	s1,24(sp)
20002e50:	03e00008 	jr	ra
20002e54:	27bd0020 	addiu	sp,sp,32

20002e58 <Device_Add>:
20002e58:	3c034000 	lui	v1,0x4000
20002e5c:	8c6501cc 	lw	a1,460(v1)
20002e60:	00000000 	nop
20002e64:	14a00004 	bnez	a1,20002e78 <Device_Add+0x20>
20002e68:	2402ffff 	li	v0,-1
20002e6c:	ac6401cc 	sw	a0,460(v1)
20002e70:	00001021 	move	v0,zero
20002e74:	3c034000 	lui	v1,0x4000
20002e78:	246301cc 	addiu	v1,v1,460
20002e7c:	8c650004 	lw	a1,4(v1)
20002e80:	00000000 	nop
20002e84:	14a00003 	bnez	a1,20002e94 <Device_Add+0x3c>
20002e88:	00000000 	nop
20002e8c:	ac640004 	sw	a0,4(v1)
20002e90:	24020001 	li	v0,1
20002e94:	3c034000 	lui	v1,0x4000
20002e98:	246301cc 	addiu	v1,v1,460
20002e9c:	8c650008 	lw	a1,8(v1)
20002ea0:	00000000 	nop
20002ea4:	14a00003 	bnez	a1,20002eb4 <Device_Add+0x5c>
20002ea8:	00000000 	nop
20002eac:	ac640008 	sw	a0,8(v1)
20002eb0:	24020002 	li	v0,2
20002eb4:	3c034000 	lui	v1,0x4000
20002eb8:	246301cc 	addiu	v1,v1,460
20002ebc:	8c65000c 	lw	a1,12(v1)
20002ec0:	00000000 	nop
20002ec4:	14a00003 	bnez	a1,20002ed4 <Device_Add+0x7c>
20002ec8:	00000000 	nop
20002ecc:	ac64000c 	sw	a0,12(v1)
20002ed0:	24020003 	li	v0,3
20002ed4:	03e00008 	jr	ra
20002ed8:	00000000 	nop
